Archive member included to satisfy reference by file (symbol)

/opt/tools/bin/../lib/gcc/arm-none-eabi/10.3.1/thumb/v7-m/nofp/libgcc.a(_arm_muldf3.o)
                              obj/Debug/src/xprintf.o (__aeabi_dmul)
/opt/tools/bin/../lib/gcc/arm-none-eabi/10.3.1/thumb/v7-m/nofp/libgcc.a(_arm_mulsf3.o)
                              obj/Debug/src/freertos/rtos-task-do.o (__aeabi_fmul)
/opt/tools/bin/../lib/gcc/arm-none-eabi/10.3.1/thumb/v7-m/nofp/libgcc.a(_arm_addsubdf3.o)
                              obj/Debug/src/xprintf.o (__aeabi_dsub)
/opt/tools/bin/../lib/gcc/arm-none-eabi/10.3.1/thumb/v7-m/nofp/libgcc.a(_arm_muldivdf3.o)
                              obj/Debug/src/xprintf.o (__aeabi_ddiv)
/opt/tools/bin/../lib/gcc/arm-none-eabi/10.3.1/thumb/v7-m/nofp/libgcc.a(_arm_cmpdf2.o)
                              obj/Debug/src/xprintf.o (__aeabi_dcmpeq)
/opt/tools/bin/../lib/gcc/arm-none-eabi/10.3.1/thumb/v7-m/nofp/libgcc.a(_arm_unorddf2.o)
                              obj/Debug/src/xprintf.o (__aeabi_dcmpun)
/opt/tools/bin/../lib/gcc/arm-none-eabi/10.3.1/thumb/v7-m/nofp/libgcc.a(_arm_fixdfsi.o)
                              obj/Debug/src/reg-base.o (__aeabi_d2iz)
/opt/tools/bin/../lib/gcc/arm-none-eabi/10.3.1/thumb/v7-m/nofp/libgcc.a(_arm_fixunsdfsi.o)
                              obj/Debug/src/reg-base.o (__aeabi_d2uiz)
/opt/tools/bin/../lib/gcc/arm-none-eabi/10.3.1/thumb/v7-m/nofp/libgcc.a(_arm_truncdfsf2.o)
                              obj/Debug/src/reg-base.o (__aeabi_d2f)
/opt/tools/bin/../lib/gcc/arm-none-eabi/10.3.1/thumb/v7-m/nofp/libgcc.a(_arm_addsubsf3.o)
                              obj/Debug/src/scale.o (__aeabi_fsub)
/opt/tools/bin/../lib/gcc/arm-none-eabi/10.3.1/thumb/v7-m/nofp/libgcc.a(_arm_muldivsf3.o)
                              obj/Debug/src/freertos/rtos-task-do.o (__aeabi_fdiv)
/opt/tools/bin/../lib/gcc/arm-none-eabi/10.3.1/thumb/v7-m/nofp/libgcc.a(_arm_cmpsf2.o)
                              obj/Debug/src/freertos/rtos-task-do.o (__aeabi_fcmplt)
/opt/tools/bin/../lib/gcc/arm-none-eabi/10.3.1/thumb/v7-m/nofp/libgcc.a(_arm_fixsfsi.o)
                              obj/Debug/src/reg-base.o (__aeabi_f2iz)
/opt/tools/bin/../lib/gcc/arm-none-eabi/10.3.1/thumb/v7-m/nofp/libgcc.a(_arm_fixunssfsi.o)
                              obj/Debug/src/freertos/rtos-task-do.o (__aeabi_f2uiz)
/opt/tools/bin/../lib/gcc/arm-none-eabi/10.3.1/thumb/v7-m/nofp/libgcc.a(_aeabi_uldivmod.o)
                              obj/Debug/src/beremiz/app.o (__aeabi_uldivmod)
/opt/tools/bin/../lib/gcc/arm-none-eabi/10.3.1/thumb/v7-m/nofp/libgcc.a(_fixsfdi.o)
                              obj/Debug/src/reg-base.o (__aeabi_f2lz)
/opt/tools/bin/../lib/gcc/arm-none-eabi/10.3.1/thumb/v7-m/nofp/libgcc.a(_fixdfdi.o)
                              obj/Debug/src/reg-base.o (__aeabi_d2lz)
/opt/tools/bin/../lib/gcc/arm-none-eabi/10.3.1/thumb/v7-m/nofp/libgcc.a(_fixunssfdi.o)
                              obj/Debug/src/freertos/rtos-task-do.o (__aeabi_f2ulz)
/opt/tools/bin/../lib/gcc/arm-none-eabi/10.3.1/thumb/v7-m/nofp/libgcc.a(_fixunsdfdi.o)
                              obj/Debug/src/reg-base.o (__aeabi_d2ulz)
/opt/tools/bin/../lib/gcc/arm-none-eabi/10.3.1/thumb/v7-m/nofp/libgcc.a(_udivmoddi4.o)
                              /opt/tools/bin/../lib/gcc/arm-none-eabi/10.3.1/thumb/v7-m/nofp/libgcc.a(_aeabi_uldivmod.o) (__udivmoddi4)
/opt/tools/bin/../lib/gcc/arm-none-eabi/10.3.1/thumb/v7-m/nofp/libgcc.a(unwind-arm.o)
                              obj/Debug/system/stm32f1/src/newlib/_cxx.o (__aeabi_unwind_cpp_pr1)
/opt/tools/bin/../lib/gcc/arm-none-eabi/10.3.1/thumb/v7-m/nofp/libgcc.a(libunwind.o)
                              /opt/tools/bin/../lib/gcc/arm-none-eabi/10.3.1/thumb/v7-m/nofp/libgcc.a(unwind-arm.o) (restore_core_regs)
/opt/tools/bin/../lib/gcc/arm-none-eabi/10.3.1/thumb/v7-m/nofp/libgcc.a(pr-support.o)
                              /opt/tools/bin/../lib/gcc/arm-none-eabi/10.3.1/thumb/v7-m/nofp/libgcc.a(unwind-arm.o) (__gnu_unwind_execute)
/opt/tools/bin/../lib/gcc/arm-none-eabi/10.3.1/thumb/v7-m/nofp/libgcc.a(_dvmd_tls.o)
                              /opt/tools/bin/../lib/gcc/arm-none-eabi/10.3.1/thumb/v7-m/nofp/libgcc.a(_aeabi_uldivmod.o) (__aeabi_ldiv0)
/opt/tools/bin/../lib/gcc/arm-none-eabi/10.3.1/../../../../arm-none-eabi/lib/thumb/v7-m/nofp/libc.a(lib_a-errno.o)
                              obj/Debug/system/stm32f1/src/newlib/_sbrk.o (__errno)
/opt/tools/bin/../lib/gcc/arm-none-eabi/10.3.1/../../../../arm-none-eabi/lib/thumb/v7-m/nofp/libc.a(lib_a-impure.o)
                              /opt/tools/bin/../lib/gcc/arm-none-eabi/10.3.1/../../../../arm-none-eabi/lib/thumb/v7-m/nofp/libc.a(lib_a-errno.o) (_impure_ptr)
/opt/tools/bin/../lib/gcc/arm-none-eabi/10.3.1/../../../../arm-none-eabi/lib/thumb/v7-m/nofp/libc.a(lib_a-memcpy.o)
                              obj/Debug/system/freertos/src/queue.o (memcpy)
/opt/tools/bin/../lib/gcc/arm-none-eabi/10.3.1/../../../../arm-none-eabi/lib/thumb/v7-m/nofp/libc.a(lib_a-memset.o)
                              obj/Debug/system/freertos/src/stream_buffer.o (memset)
/opt/tools/bin/../lib/gcc/arm-none-eabi/10.3.1/../../../../arm-none-eabi/lib/thumb/v7-m/nofp/libc.a(lib_a-strlen-stub.o)
                              obj/Debug/src/xprintf.o (strlen)

Discarded input sections

 .text          0x0000000000000000        0x0 obj/Debug/src/beremiz/app-di.o
 .data          0x0000000000000000        0x0 obj/Debug/src/beremiz/app-di.o
 .bss           0x0000000000000000        0x0 obj/Debug/src/beremiz/app-di.o
 .text          0x0000000000000000        0x0 obj/Debug/src/beremiz/app-do.o
 .data          0x0000000000000000        0x0 obj/Debug/src/beremiz/app-do.o
 .bss           0x0000000000000000        0x0 obj/Debug/src/beremiz/app-do.o
 .text          0x0000000000000000        0x0 obj/Debug/src/beremiz/app-sys.o
 .data          0x0000000000000000        0x0 obj/Debug/src/beremiz/app-sys.o
 .bss           0x0000000000000000        0x0 obj/Debug/src/beremiz/app-sys.o
 .text          0x0000000000000000        0x0 obj/Debug/src/beremiz/app.o
 .data          0x0000000000000000        0x0 obj/Debug/src/beremiz/app.o
 .bss           0x0000000000000000        0x0 obj/Debug/src/beremiz/app.o
 .text          0x0000000000000000        0x0 obj/Debug/src/freertos/rtos-error.o
 .data          0x0000000000000000        0x0 obj/Debug/src/freertos/rtos-error.o
 .bss           0x0000000000000000        0x0 obj/Debug/src/freertos/rtos-error.o
 .text          0x0000000000000000        0x0 obj/Debug/src/freertos/rtos-task-app.o
 .data          0x0000000000000000        0x0 obj/Debug/src/freertos/rtos-task-app.o
 .bss           0x0000000000000000        0x0 obj/Debug/src/freertos/rtos-task-app.o
 .text          0x0000000000000000        0x0 obj/Debug/src/freertos/rtos-task-data.o
 .data          0x0000000000000000        0x0 obj/Debug/src/freertos/rtos-task-data.o
 .bss           0x0000000000000000        0x0 obj/Debug/src/freertos/rtos-task-data.o
 .text.RTOS_TaskData_DiSetBitPack
                0x0000000000000000       0xc4 obj/Debug/src/freertos/rtos-task-data.o
 .text.RTOS_TaskData_DoSetBitPack
                0x0000000000000000       0x84 obj/Debug/src/freertos/rtos-task-data.o
 .text.RTOS_TaskData_Do
                0x0000000000000000       0x14 obj/Debug/src/freertos/rtos-task-data.o
 .text          0x0000000000000000        0x0 obj/Debug/src/freertos/rtos-task-di.o
 .data          0x0000000000000000        0x0 obj/Debug/src/freertos/rtos-task-di.o
 .bss           0x0000000000000000        0x0 obj/Debug/src/freertos/rtos-task-di.o
 .text          0x0000000000000000        0x0 obj/Debug/src/freertos/rtos-task-do.o
 .data          0x0000000000000000        0x0 obj/Debug/src/freertos/rtos-task-do.o
 .bss           0x0000000000000000        0x0 obj/Debug/src/freertos/rtos-task-do.o
 .text.RTOS_TaskDO_CalcPwmLen0
                0x0000000000000000       0x3c obj/Debug/src/freertos/rtos-task-do.o
 .text          0x0000000000000000        0x0 obj/Debug/src/freertos/rtos-task-log.o
 .data          0x0000000000000000        0x0 obj/Debug/src/freertos/rtos-task-log.o
 .bss           0x0000000000000000        0x0 obj/Debug/src/freertos/rtos-task-log.o
 .text          0x0000000000000000        0x0 obj/Debug/src/freertos/rtos-task-mbrtu.o
 .data          0x0000000000000000        0x0 obj/Debug/src/freertos/rtos-task-mbrtu.o
 .bss           0x0000000000000000        0x0 obj/Debug/src/freertos/rtos-task-mbrtu.o
 .text          0x0000000000000000        0x0 obj/Debug/src/freertos/rtos-tim-app.o
 .data          0x0000000000000000        0x0 obj/Debug/src/freertos/rtos-tim-app.o
 .bss           0x0000000000000000        0x0 obj/Debug/src/freertos/rtos-tim-app.o
 .text          0x0000000000000000        0x0 obj/Debug/src/freertos/rtos.o
 .data          0x0000000000000000        0x0 obj/Debug/src/freertos/rtos.o
 .bss           0x0000000000000000        0x0 obj/Debug/src/freertos/rtos.o
 .text          0x0000000000000000        0x0 obj/Debug/src/main.o
 .data          0x0000000000000000        0x0 obj/Debug/src/main.o
 .bss           0x0000000000000000        0x0 obj/Debug/src/main.o
 .text          0x0000000000000000        0x0 obj/Debug/src/mbrtu.o
 .data          0x0000000000000000        0x0 obj/Debug/src/mbrtu.o
 .bss           0x0000000000000000        0x0 obj/Debug/src/mbrtu.o
 .text.MBRTU_SetSettings
                0x0000000000000000       0x56 obj/Debug/src/mbrtu.o
 .text.MBRTU_InitReg
                0x0000000000000000       0x14 obj/Debug/src/mbrtu.o
 .text.MBRTU_TestSlaveID
                0x0000000000000000        0xa obj/Debug/src/mbrtu.o
 .text.MBRTU_TestTable
                0x0000000000000000       0x22 obj/Debug/src/mbrtu.o
 .text.MBRTU_TestFunc
                0x0000000000000000       0x22 obj/Debug/src/mbrtu.o
 .text.MBRTU_Stop
                0x0000000000000000       0x7a obj/Debug/src/mbrtu.o
 .text          0x0000000000000000        0x0 obj/Debug/src/reg-base.o
 .data          0x0000000000000000        0x0 obj/Debug/src/reg-base.o
 .bss           0x0000000000000000        0x0 obj/Debug/src/reg-base.o
 .text.REG_MonitorSendToQueueData
                0x0000000000000000       0x10 obj/Debug/src/reg-base.o
 .text.REG_Monitor
                0x0000000000000000       0x10 obj/Debug/src/reg-base.o
 .text.REG_MonitorByIDx
                0x0000000000000000       0x28 obj/Debug/src/reg-base.o
 .text.REG_MonitorForQueueData
                0x0000000000000000       0x1c obj/Debug/src/reg-base.o
 .text.REG_MonitorForQueueDataByMbAddr
                0x0000000000000000       0x24 obj/Debug/src/reg-base.o
 .text.REG_CopyRegByte
                0x0000000000000000       0x9c obj/Debug/src/reg-base.o
 .text.REG_CopyRegWord
                0x0000000000000000       0x9c obj/Debug/src/reg-base.o
 .text.REG_CopyRegDWord
                0x0000000000000000       0x86 obj/Debug/src/reg-base.o
 .text.REG_CopyRegLWord
                0x0000000000000000       0xa6 obj/Debug/src/reg-base.o
 .text.REG_CopyRegSInt
                0x0000000000000000       0xa8 obj/Debug/src/reg-base.o
 .text.REG_CopyRegInt
                0x0000000000000000       0xa6 obj/Debug/src/reg-base.o
 .text.REG_CopyRegDInt
                0x0000000000000000       0x86 obj/Debug/src/reg-base.o
 .text.REG_CopyRegLInt
                0x0000000000000000       0xa6 obj/Debug/src/reg-base.o
 .text.REG_CopyRegFloat
                0x0000000000000000       0xa6 obj/Debug/src/reg-base.o
 .text.REG_CopyRegDouble
                0x0000000000000000       0xb8 obj/Debug/src/reg-base.o
 .text.REG_CopyVar
                0x0000000000000000       0x80 obj/Debug/src/reg-base.o
 .text          0x0000000000000000        0x0 obj/Debug/src/reg.o
 .data          0x0000000000000000        0x0 obj/Debug/src/reg.o
 .bss           0x0000000000000000        0x0 obj/Debug/src/reg.o
 .text          0x0000000000000000        0x0 obj/Debug/src/scale.o
 .data          0x0000000000000000        0x0 obj/Debug/src/scale.o
 .bss           0x0000000000000000        0x0 obj/Debug/src/scale.o
 .text.ScaleA   0x0000000000000000       0x10 obj/Debug/src/scale.o
 .text.ScaleA_Ka
                0x0000000000000000       0x2c obj/Debug/src/scale.o
 .text.ScaleA_Kb
                0x0000000000000000       0x46 obj/Debug/src/scale.o
 .debug_info    0x0000000000000000      0x263 obj/Debug/src/scale.o
 .debug_abbrev  0x0000000000000000       0xa3 obj/Debug/src/scale.o
 .debug_loc     0x0000000000000000      0x1ed obj/Debug/src/scale.o
 .debug_aranges
                0x0000000000000000       0x30 obj/Debug/src/scale.o
 .debug_ranges  0x0000000000000000       0x20 obj/Debug/src/scale.o
 .debug_line    0x0000000000000000       0xd0 obj/Debug/src/scale.o
 .debug_str     0x0000000000000000      0x20d obj/Debug/src/scale.o
 .comment       0x0000000000000000       0x5e obj/Debug/src/scale.o
 .debug_frame   0x0000000000000000       0x64 obj/Debug/src/scale.o
 .ARM.attributes
                0x0000000000000000       0x2d obj/Debug/src/scale.o
 .text          0x0000000000000000        0x0 obj/Debug/src/stm32f1/di.o
 .data          0x0000000000000000        0x0 obj/Debug/src/stm32f1/di.o
 .bss           0x0000000000000000        0x0 obj/Debug/src/stm32f1/di.o
 .text          0x0000000000000000        0x0 obj/Debug/src/stm32f1/do.o
 .data          0x0000000000000000        0x0 obj/Debug/src/stm32f1/do.o
 .bss           0x0000000000000000        0x0 obj/Debug/src/stm32f1/do.o
 .text.PlcDO_Toggle
                0x0000000000000000       0x38 obj/Debug/src/stm32f1/do.o
 .text          0x0000000000000000        0x0 obj/Debug/src/stm32f1/soft-reset.o
 .data          0x0000000000000000        0x0 obj/Debug/src/stm32f1/soft-reset.o
 .bss           0x0000000000000000        0x0 obj/Debug/src/stm32f1/soft-reset.o
 .text          0x0000000000000000        0x0 obj/Debug/src/stm32f1/swd-debug.o
 .data          0x0000000000000000        0x0 obj/Debug/src/stm32f1/swd-debug.o
 .bss           0x0000000000000000        0x0 obj/Debug/src/stm32f1/swd-debug.o
 .text.SWDDebug_PrintStr
                0x0000000000000000       0x66 obj/Debug/src/stm32f1/swd-debug.o
 .text.SWDDebug_PrintByte
                0x0000000000000000       0x32 obj/Debug/src/stm32f1/swd-debug.o
 .text.SWDDebug_PrintWord
                0x0000000000000000       0x34 obj/Debug/src/stm32f1/swd-debug.o
 .text.SWDDebug_PrintDWord
                0x0000000000000000       0x34 obj/Debug/src/stm32f1/swd-debug.o
 .debug_info    0x0000000000000000      0x4c8 obj/Debug/src/stm32f1/swd-debug.o
 .debug_abbrev  0x0000000000000000      0x1b0 obj/Debug/src/stm32f1/swd-debug.o
 .debug_loc     0x0000000000000000      0x15d obj/Debug/src/stm32f1/swd-debug.o
 .debug_aranges
                0x0000000000000000       0x38 obj/Debug/src/stm32f1/swd-debug.o
 .debug_ranges  0x0000000000000000       0x40 obj/Debug/src/stm32f1/swd-debug.o
 .debug_line    0x0000000000000000      0x2a3 obj/Debug/src/stm32f1/swd-debug.o
 .debug_str     0x0000000000000000      0x2cf obj/Debug/src/stm32f1/swd-debug.o
 .comment       0x0000000000000000       0x5e obj/Debug/src/stm32f1/swd-debug.o
 .debug_frame   0x0000000000000000       0x64 obj/Debug/src/stm32f1/swd-debug.o
 .ARM.attributes
                0x0000000000000000       0x2d obj/Debug/src/stm32f1/swd-debug.o
 .text          0x0000000000000000        0x0 obj/Debug/src/stm32f1/sysclock.o
 .data          0x0000000000000000        0x0 obj/Debug/src/stm32f1/sysclock.o
 .bss           0x0000000000000000        0x0 obj/Debug/src/stm32f1/sysclock.o
 .text          0x0000000000000000        0x0 obj/Debug/src/stm32f1/systick.o
 .data          0x0000000000000000        0x0 obj/Debug/src/stm32f1/systick.o
 .bss           0x0000000000000000        0x0 obj/Debug/src/stm32f1/systick.o
 .text          0x0000000000000000        0x0 obj/Debug/src/stm32f1/tim2.o
 .data          0x0000000000000000        0x0 obj/Debug/src/stm32f1/tim2.o
 .bss           0x0000000000000000        0x0 obj/Debug/src/stm32f1/tim2.o
 .text          0x0000000000000000        0x0 obj/Debug/src/stm32f1/tim3.o
 .data          0x0000000000000000        0x0 obj/Debug/src/stm32f1/tim3.o
 .bss           0x0000000000000000        0x0 obj/Debug/src/stm32f1/tim3.o
 .text          0x0000000000000000        0x0 obj/Debug/src/stm32f1/usart.o
 .data          0x0000000000000000        0x0 obj/Debug/src/stm32f1/usart.o
 .bss           0x0000000000000000        0x0 obj/Debug/src/stm32f1/usart.o
 .text.PlcUart_SendStr
                0x0000000000000000       0x32 obj/Debug/src/stm32f1/usart.o
 .text.PlcUsart_ReadByte
                0x0000000000000000       0x20 obj/Debug/src/stm32f1/usart.o
 .text.PlcUsart_StartTxISR
                0x0000000000000000       0x26 obj/Debug/src/stm32f1/usart.o
 .text          0x0000000000000000        0x0 obj/Debug/src/stm32f1/usart1.o
 .data          0x0000000000000000        0x0 obj/Debug/src/stm32f1/usart1.o
 .bss           0x0000000000000000        0x0 obj/Debug/src/stm32f1/usart1.o
 .text          0x0000000000000000        0x0 obj/Debug/src/stm32f1/usart2.o
 .data          0x0000000000000000        0x0 obj/Debug/src/stm32f1/usart2.o
 .bss           0x0000000000000000        0x0 obj/Debug/src/stm32f1/usart2.o
 .text          0x0000000000000000        0x0 obj/Debug/src/stm32f1/usart3.o
 .data          0x0000000000000000        0x0 obj/Debug/src/stm32f1/usart3.o
 .bss           0x0000000000000000        0x0 obj/Debug/src/stm32f1/usart3.o
 .text          0x0000000000000000        0x0 obj/Debug/src/type.o
 .data          0x0000000000000000        0x0 obj/Debug/src/type.o
 .bss           0x0000000000000000        0x0 obj/Debug/src/type.o
 .text.Type_GetSz
                0x0000000000000000       0x38 obj/Debug/src/type.o
 .text.Type_CopyBytesExt
                0x0000000000000000       0x3c obj/Debug/src/type.o
 .text.Type_CopyBytes
                0x0000000000000000       0x12 obj/Debug/src/type.o
 .text.Type_ReplaceWords
                0x0000000000000000       0x10 obj/Debug/src/type.o
 .text          0x0000000000000000        0x0 obj/Debug/src/xprintf.o
 .data          0x0000000000000000        0x0 obj/Debug/src/xprintf.o
 .bss           0x0000000000000000        0x0 obj/Debug/src/xprintf.o
 .text.xputc    0x0000000000000000       0x14 obj/Debug/src/xprintf.o
 .text.xfputs   0x0000000000000000       0x1a obj/Debug/src/xprintf.o
 .text.xputs    0x0000000000000000       0x14 obj/Debug/src/xprintf.o
 .text.xprintf  0x0000000000000000       0x24 obj/Debug/src/xprintf.o
 .text.xfprintf
                0x0000000000000000       0x1c obj/Debug/src/xprintf.o
 .text.xsprintf
                0x0000000000000000       0x30 obj/Debug/src/xprintf.o
 .bss.xfunc_output
                0x0000000000000000        0x4 obj/Debug/src/xprintf.o
 .text          0x0000000000000000        0x0 obj/Debug/system/beremiz/src/plc_app.o
 .data          0x0000000000000000        0x0 obj/Debug/system/beremiz/src/plc_app.o
 .bss           0x0000000000000000        0x0 obj/Debug/system/beremiz/src/plc_app.o
 .rodata.PlcApp_DebugPrintItem.str1.4
                0x0000000000000000       0x16 obj/Debug/system/beremiz/src/plc_app.o
 .text.PlcApp_DebugPrintItem
                0x0000000000000000       0xd0 obj/Debug/system/beremiz/src/plc_app.o
 .rodata.PlcApp_DebugPrint.str1.4
                0x0000000000000000        0x5 obj/Debug/system/beremiz/src/plc_app.o
 .text.PlcApp_DebugPrint
                0x0000000000000000       0x44 obj/Debug/system/beremiz/src/plc_app.o
 .rodata        0x0000000000000000        0xd obj/Debug/system/beremiz/src/plc_app.o
 .rodata.plc_app_err_msg
                0x0000000000000000       0x1a obj/Debug/system/beremiz/src/plc_app.o
 .rodata.plc_start_msg
                0x0000000000000000       0x18 obj/Debug/system/beremiz/src/plc_app.o
 .text          0x0000000000000000        0x0 obj/Debug/system/beremiz/src/plc_backup.o
 .data          0x0000000000000000        0x0 obj/Debug/system/beremiz/src/plc_backup.o
 .bss           0x0000000000000000        0x0 obj/Debug/system/beremiz/src/plc_backup.o
 .text.plc_backup_invalidate
                0x0000000000000000        0x2 obj/Debug/system/beremiz/src/plc_backup.o
 .text.plc_backup_validate
                0x0000000000000000        0x2 obj/Debug/system/beremiz/src/plc_backup.o
 .text.plc_backup_check
                0x0000000000000000        0x4 obj/Debug/system/beremiz/src/plc_backup.o
 .text.plc_backup_remind
                0x0000000000000000        0x2 obj/Debug/system/beremiz/src/plc_backup.o
 .text.plc_backup_retain
                0x0000000000000000        0x2 obj/Debug/system/beremiz/src/plc_backup.o
 .debug_info    0x0000000000000000      0x126 obj/Debug/system/beremiz/src/plc_backup.o
 .debug_abbrev  0x0000000000000000       0xa5 obj/Debug/system/beremiz/src/plc_backup.o
 .debug_aranges
                0x0000000000000000       0x40 obj/Debug/system/beremiz/src/plc_backup.o
 .debug_ranges  0x0000000000000000       0x30 obj/Debug/system/beremiz/src/plc_backup.o
 .debug_line    0x0000000000000000       0xb0 obj/Debug/system/beremiz/src/plc_backup.o
 .debug_str     0x0000000000000000      0x215 obj/Debug/system/beremiz/src/plc_backup.o
 .comment       0x0000000000000000       0x5e obj/Debug/system/beremiz/src/plc_backup.o
 .debug_frame   0x0000000000000000       0x60 obj/Debug/system/beremiz/src/plc_backup.o
 .ARM.attributes
                0x0000000000000000       0x2d obj/Debug/system/beremiz/src/plc_backup.o
 .text          0x0000000000000000        0x0 obj/Debug/system/beremiz/src/plc_debug.o
 .data          0x0000000000000000        0x0 obj/Debug/system/beremiz/src/plc_debug.o
 .bss           0x0000000000000000        0x0 obj/Debug/system/beremiz/src/plc_debug.o
 .text.dbg_fifo_read
                0x0000000000000000       0x26 obj/Debug/system/beremiz/src/plc_debug.o
 .text          0x0000000000000000        0x0 obj/Debug/system/beremiz/src/plc_glue_rte.o
 .data          0x0000000000000000        0x0 obj/Debug/system/beremiz/src/plc_glue_rte.o
 .bss           0x0000000000000000        0x0 obj/Debug/system/beremiz/src/plc_glue_rte.o
 .text          0x0000000000000000        0x0 obj/Debug/system/beremiz/src/plc_rtc.o
 .data          0x0000000000000000        0x0 obj/Debug/system/beremiz/src/plc_rtc.o
 .bss           0x0000000000000000        0x0 obj/Debug/system/beremiz/src/plc_rtc.o
 .text.plc_rtc_time_get
                0x0000000000000000        0x2 obj/Debug/system/beremiz/src/plc_rtc.o
 .debug_info    0x0000000000000000       0xdd obj/Debug/system/beremiz/src/plc_rtc.o
 .debug_abbrev  0x0000000000000000       0x8d obj/Debug/system/beremiz/src/plc_rtc.o
 .debug_aranges
                0x0000000000000000       0x20 obj/Debug/system/beremiz/src/plc_rtc.o
 .debug_ranges  0x0000000000000000       0x10 obj/Debug/system/beremiz/src/plc_rtc.o
 .debug_line    0x0000000000000000       0x72 obj/Debug/system/beremiz/src/plc_rtc.o
 .debug_str     0x0000000000000000      0x1f6 obj/Debug/system/beremiz/src/plc_rtc.o
 .comment       0x0000000000000000       0x5e obj/Debug/system/beremiz/src/plc_rtc.o
 .debug_frame   0x0000000000000000       0x20 obj/Debug/system/beremiz/src/plc_rtc.o
 .ARM.attributes
                0x0000000000000000       0x2d obj/Debug/system/beremiz/src/plc_rtc.o
 .text          0x0000000000000000        0x0 obj/Debug/system/beremiz/src/plc_tick.o
 .data          0x0000000000000000        0x0 obj/Debug/system/beremiz/src/plc_tick.o
 .bss           0x0000000000000000        0x0 obj/Debug/system/beremiz/src/plc_tick.o
 .text.plc_tick_setup
                0x0000000000000000        0x2 obj/Debug/system/beremiz/src/plc_tick.o
 .debug_info    0x0000000000000000       0xb1 obj/Debug/system/beremiz/src/plc_tick.o
 .debug_abbrev  0x0000000000000000       0x64 obj/Debug/system/beremiz/src/plc_tick.o
 .debug_aranges
                0x0000000000000000       0x20 obj/Debug/system/beremiz/src/plc_tick.o
 .debug_ranges  0x0000000000000000       0x10 obj/Debug/system/beremiz/src/plc_tick.o
 .debug_line    0x0000000000000000       0x97 obj/Debug/system/beremiz/src/plc_tick.o
 .debug_str     0x0000000000000000      0x1d5 obj/Debug/system/beremiz/src/plc_tick.o
 .comment       0x0000000000000000       0x5e obj/Debug/system/beremiz/src/plc_tick.o
 .debug_frame   0x0000000000000000       0x20 obj/Debug/system/beremiz/src/plc_tick.o
 .ARM.attributes
                0x0000000000000000       0x2d obj/Debug/system/beremiz/src/plc_tick.o
 .text          0x0000000000000000        0x0 obj/Debug/system/freertos/src/croutine.o
 .data          0x0000000000000000        0x0 obj/Debug/system/freertos/src/croutine.o
 .bss           0x0000000000000000        0x0 obj/Debug/system/freertos/src/croutine.o
 .debug_info    0x0000000000000000       0x72 obj/Debug/system/freertos/src/croutine.o
 .debug_abbrev  0x0000000000000000       0x26 obj/Debug/system/freertos/src/croutine.o
 .debug_aranges
                0x0000000000000000       0x18 obj/Debug/system/freertos/src/croutine.o
 .debug_line    0x0000000000000000       0x1d obj/Debug/system/freertos/src/croutine.o
 .debug_str     0x0000000000000000      0x1b9 obj/Debug/system/freertos/src/croutine.o
 .comment       0x0000000000000000       0x5e obj/Debug/system/freertos/src/croutine.o
 .ARM.attributes
                0x0000000000000000       0x33 obj/Debug/system/freertos/src/croutine.o
 .text          0x0000000000000000        0x0 obj/Debug/system/freertos/src/event_groups.o
 .data          0x0000000000000000        0x0 obj/Debug/system/freertos/src/event_groups.o
 .bss           0x0000000000000000        0x0 obj/Debug/system/freertos/src/event_groups.o
 .text.prvTestWaitCondition
                0x0000000000000000       0x1c obj/Debug/system/freertos/src/event_groups.o
 .text.xEventGroupCreate
                0x0000000000000000       0x1a obj/Debug/system/freertos/src/event_groups.o
 .text.xEventGroupWaitBits
                0x0000000000000000       0xba obj/Debug/system/freertos/src/event_groups.o
 .text.xEventGroupClearBits
                0x0000000000000000       0x1a obj/Debug/system/freertos/src/event_groups.o
 .text.xEventGroupGetBitsFromISR
                0x0000000000000000       0x1c obj/Debug/system/freertos/src/event_groups.o
 .text.xEventGroupSetBits
                0x0000000000000000       0x62 obj/Debug/system/freertos/src/event_groups.o
 .text.xEventGroupSync
                0x0000000000000000       0x90 obj/Debug/system/freertos/src/event_groups.o
 .text.vEventGroupDelete
                0x0000000000000000       0x26 obj/Debug/system/freertos/src/event_groups.o
 .text.vEventGroupSetBitsCallback
                0x0000000000000000        0x8 obj/Debug/system/freertos/src/event_groups.o
 .text.vEventGroupClearBitsCallback
                0x0000000000000000        0x8 obj/Debug/system/freertos/src/event_groups.o
 .debug_info    0x0000000000000000      0xa2b obj/Debug/system/freertos/src/event_groups.o
 .debug_abbrev  0x0000000000000000      0x23f obj/Debug/system/freertos/src/event_groups.o
 .debug_loc     0x0000000000000000      0x889 obj/Debug/system/freertos/src/event_groups.o
 .debug_aranges
                0x0000000000000000       0x68 obj/Debug/system/freertos/src/event_groups.o
 .debug_ranges  0x0000000000000000       0x70 obj/Debug/system/freertos/src/event_groups.o
 .debug_line    0x0000000000000000      0x552 obj/Debug/system/freertos/src/event_groups.o
 .debug_str     0x0000000000000000      0x62f obj/Debug/system/freertos/src/event_groups.o
 .comment       0x0000000000000000       0x5e obj/Debug/system/freertos/src/event_groups.o
 .debug_frame   0x0000000000000000      0x110 obj/Debug/system/freertos/src/event_groups.o
 .ARM.attributes
                0x0000000000000000       0x2d obj/Debug/system/freertos/src/event_groups.o
 .text          0x0000000000000000        0x0 obj/Debug/system/freertos/src/heap_1.o
 .data          0x0000000000000000        0x0 obj/Debug/system/freertos/src/heap_1.o
 .bss           0x0000000000000000        0x0 obj/Debug/system/freertos/src/heap_1.o
 .text.vPortInitialiseBlocks
                0x0000000000000000        0xc obj/Debug/system/freertos/src/heap_1.o
 .text.xPortGetFreeHeapSize
                0x0000000000000000       0x10 obj/Debug/system/freertos/src/heap_1.o
 .text          0x0000000000000000        0x0 obj/Debug/system/freertos/src/list.o
 .data          0x0000000000000000        0x0 obj/Debug/system/freertos/src/list.o
 .bss           0x0000000000000000        0x0 obj/Debug/system/freertos/src/list.o
 .text          0x0000000000000000        0x0 obj/Debug/system/freertos/src/port.o
 .data          0x0000000000000000        0x0 obj/Debug/system/freertos/src/port.o
 .bss           0x0000000000000000        0x0 obj/Debug/system/freertos/src/port.o
 .text.vPortEndScheduler
                0x0000000000000000        0x2 obj/Debug/system/freertos/src/port.o
 .text          0x0000000000000000        0x0 obj/Debug/system/freertos/src/queue.o
 .data          0x0000000000000000        0x0 obj/Debug/system/freertos/src/queue.o
 .bss           0x0000000000000000        0x0 obj/Debug/system/freertos/src/queue.o
 .text.xQueueGiveFromISR
                0x0000000000000000       0x7e obj/Debug/system/freertos/src/queue.o
 .text.xQueuePeek
                0x0000000000000000      0x110 obj/Debug/system/freertos/src/queue.o
 .text.xQueueReceiveFromISR
                0x0000000000000000       0x6c obj/Debug/system/freertos/src/queue.o
 .text.xQueuePeekFromISR
                0x0000000000000000       0x30 obj/Debug/system/freertos/src/queue.o
 .text.uxQueueMessagesWaiting
                0x0000000000000000       0x12 obj/Debug/system/freertos/src/queue.o
 .text.uxQueueSpacesAvailable
                0x0000000000000000       0x16 obj/Debug/system/freertos/src/queue.o
 .text.uxQueueMessagesWaitingFromISR
                0x0000000000000000        0x4 obj/Debug/system/freertos/src/queue.o
 .text.vQueueDelete
                0x0000000000000000        0x8 obj/Debug/system/freertos/src/queue.o
 .text.xQueueIsQueueEmptyFromISR
                0x0000000000000000        0xc obj/Debug/system/freertos/src/queue.o
 .text.xQueueIsQueueFullFromISR
                0x0000000000000000       0x10 obj/Debug/system/freertos/src/queue.o
 .text.xQueueCreateSet
                0x0000000000000000        0xc obj/Debug/system/freertos/src/queue.o
 .text.xQueueAddToSet
                0x0000000000000000       0x26 obj/Debug/system/freertos/src/queue.o
 .text.xQueueRemoveFromSet
                0x0000000000000000       0x26 obj/Debug/system/freertos/src/queue.o
 .text.xQueueSelectFromSet
                0x0000000000000000       0x18 obj/Debug/system/freertos/src/queue.o
 .text.xQueueSelectFromSetFromISR
                0x0000000000000000       0x16 obj/Debug/system/freertos/src/queue.o
 .text          0x0000000000000000        0x0 obj/Debug/system/freertos/src/stream_buffer.o
 .data          0x0000000000000000        0x0 obj/Debug/system/freertos/src/stream_buffer.o
 .bss           0x0000000000000000        0x0 obj/Debug/system/freertos/src/stream_buffer.o
 .text.prvBytesInBuffer
                0x0000000000000000       0x12 obj/Debug/system/freertos/src/stream_buffer.o
 .text.prvInitialiseNewStreamBuffer
                0x0000000000000000       0x20 obj/Debug/system/freertos/src/stream_buffer.o
 .text.prvWriteBytesToBuffer
                0x0000000000000000       0x44 obj/Debug/system/freertos/src/stream_buffer.o
 .text.prvWriteMessageToBuffer
                0x0000000000000000       0x44 obj/Debug/system/freertos/src/stream_buffer.o
 .text.prvReadBytesFromBuffer
                0x0000000000000000       0x54 obj/Debug/system/freertos/src/stream_buffer.o
 .text.prvReadMessageFromBuffer
                0x0000000000000000       0x4c obj/Debug/system/freertos/src/stream_buffer.o
 .text.xStreamBufferGenericCreate
                0x0000000000000000       0x34 obj/Debug/system/freertos/src/stream_buffer.o
 .text.vStreamBufferDelete
                0x0000000000000000       0x1a obj/Debug/system/freertos/src/stream_buffer.o
 .text.xStreamBufferReset
                0x0000000000000000       0x36 obj/Debug/system/freertos/src/stream_buffer.o
 .text.xStreamBufferSetTriggerLevel
                0x0000000000000000       0x16 obj/Debug/system/freertos/src/stream_buffer.o
 .text.xStreamBufferSpacesAvailable
                0x0000000000000000       0x14 obj/Debug/system/freertos/src/stream_buffer.o
 .text.xStreamBufferBytesAvailable
                0x0000000000000000        0x8 obj/Debug/system/freertos/src/stream_buffer.o
 .text.xStreamBufferSend
                0x0000000000000000       0xb6 obj/Debug/system/freertos/src/stream_buffer.o
 .text.xStreamBufferSendFromISR
                0x0000000000000000       0x7a obj/Debug/system/freertos/src/stream_buffer.o
 .text.xStreamBufferReceive
                0x0000000000000000       0xb0 obj/Debug/system/freertos/src/stream_buffer.o
 .text.xStreamBufferNextMessageLengthBytes
                0x0000000000000000       0x36 obj/Debug/system/freertos/src/stream_buffer.o
 .text.xStreamBufferReceiveFromISR
                0x0000000000000000       0x7a obj/Debug/system/freertos/src/stream_buffer.o
 .text.xStreamBufferIsEmpty
                0x0000000000000000       0x10 obj/Debug/system/freertos/src/stream_buffer.o
 .text.xStreamBufferIsFull
                0x0000000000000000       0x20 obj/Debug/system/freertos/src/stream_buffer.o
 .text.xStreamBufferSendCompletedFromISR
                0x0000000000000000       0x3e obj/Debug/system/freertos/src/stream_buffer.o
 .text.xStreamBufferReceiveCompletedFromISR
                0x0000000000000000       0x3e obj/Debug/system/freertos/src/stream_buffer.o
 .debug_info    0x0000000000000000     0x14dc obj/Debug/system/freertos/src/stream_buffer.o
 .debug_abbrev  0x0000000000000000      0x291 obj/Debug/system/freertos/src/stream_buffer.o
 .debug_loc     0x0000000000000000     0x16e6 obj/Debug/system/freertos/src/stream_buffer.o
 .debug_aranges
                0x0000000000000000       0xc0 obj/Debug/system/freertos/src/stream_buffer.o
 .debug_ranges  0x0000000000000000       0xb0 obj/Debug/system/freertos/src/stream_buffer.o
 .debug_line    0x0000000000000000      0xacf obj/Debug/system/freertos/src/stream_buffer.o
 .debug_str     0x0000000000000000      0x859 obj/Debug/system/freertos/src/stream_buffer.o
 .comment       0x0000000000000000       0x5e obj/Debug/system/freertos/src/stream_buffer.o
 .debug_frame   0x0000000000000000      0x2a4 obj/Debug/system/freertos/src/stream_buffer.o
 .ARM.attributes
                0x0000000000000000       0x2d obj/Debug/system/freertos/src/stream_buffer.o
 .text          0x0000000000000000        0x0 obj/Debug/system/freertos/src/tasks.o
 .data          0x0000000000000000        0x0 obj/Debug/system/freertos/src/tasks.o
 .bss           0x0000000000000000        0x0 obj/Debug/system/freertos/src/tasks.o
 .text.prvTaskIsTaskSuspended
                0x0000000000000000       0x2c obj/Debug/system/freertos/src/tasks.o
 .text.vTaskResume
                0x0000000000000000       0x74 obj/Debug/system/freertos/src/tasks.o
 .text.xTaskResumeFromISR
                0x0000000000000000       0x88 obj/Debug/system/freertos/src/tasks.o
 .text.vTaskEndScheduler
                0x0000000000000000       0x24 obj/Debug/system/freertos/src/tasks.o
 .text.xTaskGetTickCountFromISR
                0x0000000000000000        0xc obj/Debug/system/freertos/src/tasks.o
 .text.uxTaskGetNumberOfTasks
                0x0000000000000000        0xc obj/Debug/system/freertos/src/tasks.o
 .text.pcTaskGetName
                0x0000000000000000       0x14 obj/Debug/system/freertos/src/tasks.o
 .text.vTaskDelayUntil
                0x0000000000000000       0x60 obj/Debug/system/freertos/src/tasks.o
 .text.vTaskDelay
                0x0000000000000000       0x32 obj/Debug/system/freertos/src/tasks.o
 .text.xTaskCatchUpTicks
                0x0000000000000000       0x1c obj/Debug/system/freertos/src/tasks.o
 .text.vTaskSuspend
                0x0000000000000000       0xcc obj/Debug/system/freertos/src/tasks.o
 .text.vTaskPlaceOnUnorderedEventList
                0x0000000000000000       0x24 obj/Debug/system/freertos/src/tasks.o
 .text.vTaskRemoveFromUnorderedEventList
                0x0000000000000000       0x58 obj/Debug/system/freertos/src/tasks.o
 .text.vTaskSetTimeOutState
                0x0000000000000000       0x24 obj/Debug/system/freertos/src/tasks.o
 .text.vTaskSetThreadLocalStoragePointer
                0x0000000000000000       0x1c obj/Debug/system/freertos/src/tasks.o
 .text.pvTaskGetThreadLocalStoragePointer
                0x0000000000000000       0x20 obj/Debug/system/freertos/src/tasks.o
 .text.xTaskGetCurrentTaskHandle
                0x0000000000000000        0xc obj/Debug/system/freertos/src/tasks.o
 .text.uxTaskResetEventItemValue
                0x0000000000000000       0x18 obj/Debug/system/freertos/src/tasks.o
 .text.ulTaskNotifyTake
                0x0000000000000000       0x80 obj/Debug/system/freertos/src/tasks.o
 .text.xTaskNotifyWait
                0x0000000000000000       0xa4 obj/Debug/system/freertos/src/tasks.o
 .text.xTaskGenericNotify
                0x0000000000000000       0xc8 obj/Debug/system/freertos/src/tasks.o
 .text.xTaskGenericNotifyFromISR
                0x0000000000000000       0xec obj/Debug/system/freertos/src/tasks.o
 .text.vTaskNotifyGiveFromISR
                0x0000000000000000       0xa4 obj/Debug/system/freertos/src/tasks.o
 .text.xTaskNotifyStateClear
                0x0000000000000000       0x34 obj/Debug/system/freertos/src/tasks.o
 .text.ulTaskNotifyValueClear
                0x0000000000000000       0x34 obj/Debug/system/freertos/src/tasks.o
 .text          0x0000000000000000        0x0 obj/Debug/system/freertos/src/timers.o
 .data          0x0000000000000000        0x0 obj/Debug/system/freertos/src/timers.o
 .bss           0x0000000000000000        0x0 obj/Debug/system/freertos/src/timers.o
 .text.xTimerGetTimerDaemonTaskHandle
                0x0000000000000000        0xc obj/Debug/system/freertos/src/timers.o
 .text.xTimerGetPeriod
                0x0000000000000000        0x4 obj/Debug/system/freertos/src/timers.o
 .text.vTimerSetReloadMode
                0x0000000000000000       0x2c obj/Debug/system/freertos/src/timers.o
 .text.uxTimerGetReloadMode
                0x0000000000000000       0x20 obj/Debug/system/freertos/src/timers.o
 .text.xTimerGetExpiryTime
                0x0000000000000000        0x4 obj/Debug/system/freertos/src/timers.o
 .text.pcTimerGetName
                0x0000000000000000        0x4 obj/Debug/system/freertos/src/timers.o
 .text.xTimerIsTimerActive
                0x0000000000000000       0x20 obj/Debug/system/freertos/src/timers.o
 .text.pvTimerGetTimerID
                0x0000000000000000       0x12 obj/Debug/system/freertos/src/timers.o
 .text.vTimerSetTimerID
                0x0000000000000000       0x12 obj/Debug/system/freertos/src/timers.o
 .text          0x0000000000000000        0x0 obj/Debug/system/stm32f1/src/cmsis/system_stm32f10x.o
 .data          0x0000000000000000        0x0 obj/Debug/system/stm32f1/src/cmsis/system_stm32f10x.o
 .bss           0x0000000000000000        0x0 obj/Debug/system/stm32f1/src/cmsis/system_stm32f10x.o
 .text          0x0000000000000000        0x0 obj/Debug/system/stm32f1/src/cmsis/vectors_stm32f10x.o
 .data          0x0000000000000000        0x0 obj/Debug/system/stm32f1/src/cmsis/vectors_stm32f10x.o
 .bss           0x0000000000000000        0x0 obj/Debug/system/stm32f1/src/cmsis/vectors_stm32f10x.o
 .text          0x0000000000000000        0x0 obj/Debug/system/stm32f1/src/cortexm/_initialize_hardware.o
 .data          0x0000000000000000        0x0 obj/Debug/system/stm32f1/src/cortexm/_initialize_hardware.o
 .bss           0x0000000000000000        0x0 obj/Debug/system/stm32f1/src/cortexm/_initialize_hardware.o
 .text          0x0000000000000000        0x0 obj/Debug/system/stm32f1/src/cortexm/_reset_hardware.o
 .data          0x0000000000000000        0x0 obj/Debug/system/stm32f1/src/cortexm/_reset_hardware.o
 .bss           0x0000000000000000        0x0 obj/Debug/system/stm32f1/src/cortexm/_reset_hardware.o
 .text.__reset_hardware
                0x0000000000000000       0x24 obj/Debug/system/stm32f1/src/cortexm/_reset_hardware.o
 .debug_info    0x0000000000000000      0x2d1 obj/Debug/system/stm32f1/src/cortexm/_reset_hardware.o
 .debug_abbrev  0x0000000000000000      0x109 obj/Debug/system/stm32f1/src/cortexm/_reset_hardware.o
 .debug_aranges
                0x0000000000000000       0x20 obj/Debug/system/stm32f1/src/cortexm/_reset_hardware.o
 .debug_ranges  0x0000000000000000       0x10 obj/Debug/system/stm32f1/src/cortexm/_reset_hardware.o
 .debug_line    0x0000000000000000      0x127 obj/Debug/system/stm32f1/src/cortexm/_reset_hardware.o
 .debug_str     0x0000000000000000      0x253 obj/Debug/system/stm32f1/src/cortexm/_reset_hardware.o
 .comment       0x0000000000000000       0x5e obj/Debug/system/stm32f1/src/cortexm/_reset_hardware.o
 .debug_frame   0x0000000000000000       0x20 obj/Debug/system/stm32f1/src/cortexm/_reset_hardware.o
 .ARM.attributes
                0x0000000000000000       0x2d obj/Debug/system/stm32f1/src/cortexm/_reset_hardware.o
 .text          0x0000000000000000        0x0 obj/Debug/system/stm32f1/src/cortexm/exception_handlers.o
 .data          0x0000000000000000        0x0 obj/Debug/system/stm32f1/src/cortexm/exception_handlers.o
 .bss           0x0000000000000000        0x0 obj/Debug/system/stm32f1/src/cortexm/exception_handlers.o
 .text          0x0000000000000000        0x0 obj/Debug/system/stm32f1/src/diag/Trace.o
 .data          0x0000000000000000        0x0 obj/Debug/system/stm32f1/src/diag/Trace.o
 .bss           0x0000000000000000        0x0 obj/Debug/system/stm32f1/src/diag/Trace.o
 .debug_line    0x0000000000000000        0x0 obj/Debug/system/stm32f1/src/diag/Trace.o
 .debug_str     0x0000000000000000      0x125 obj/Debug/system/stm32f1/src/diag/Trace.o
 .comment       0x0000000000000000       0x5e obj/Debug/system/stm32f1/src/diag/Trace.o
 .ARM.attributes
                0x0000000000000000       0x33 obj/Debug/system/stm32f1/src/diag/Trace.o
 .text          0x0000000000000000        0x0 obj/Debug/system/stm32f1/src/diag/trace_impl.o
 .data          0x0000000000000000        0x0 obj/Debug/system/stm32f1/src/diag/trace_impl.o
 .bss           0x0000000000000000        0x0 obj/Debug/system/stm32f1/src/diag/trace_impl.o
 .debug_line    0x0000000000000000        0x0 obj/Debug/system/stm32f1/src/diag/trace_impl.o
 .debug_str     0x0000000000000000      0x12a obj/Debug/system/stm32f1/src/diag/trace_impl.o
 .comment       0x0000000000000000       0x5e obj/Debug/system/stm32f1/src/diag/trace_impl.o
 .ARM.attributes
                0x0000000000000000       0x33 obj/Debug/system/stm32f1/src/diag/trace_impl.o
 .text          0x0000000000000000        0x0 obj/Debug/system/stm32f1/src/newlib/_cxx.o
 .data          0x0000000000000000        0x0 obj/Debug/system/stm32f1/src/newlib/_cxx.o
 .bss           0x0000000000000000        0x0 obj/Debug/system/stm32f1/src/newlib/_cxx.o
 .text._ZN9__gnu_cxx27__verbose_terminate_handlerEv
                0x0000000000000000        0x6 obj/Debug/system/stm32f1/src/newlib/_cxx.o
 .ARM.extab.text._ZN9__gnu_cxx27__verbose_terminate_handlerEv
                0x0000000000000000        0xc obj/Debug/system/stm32f1/src/newlib/_cxx.o
 .ARM.exidx.text._ZN9__gnu_cxx27__verbose_terminate_handlerEv
                0x0000000000000000        0x8 obj/Debug/system/stm32f1/src/newlib/_cxx.o
 .text.__cxa_pure_virtual
                0x0000000000000000        0x6 obj/Debug/system/stm32f1/src/newlib/_cxx.o
 .ARM.extab.text.__cxa_pure_virtual
                0x0000000000000000        0xc obj/Debug/system/stm32f1/src/newlib/_cxx.o
 .ARM.exidx.text.__cxa_pure_virtual
                0x0000000000000000        0x8 obj/Debug/system/stm32f1/src/newlib/_cxx.o
 .debug_info    0x0000000000000000      0x7a9 obj/Debug/system/stm32f1/src/newlib/_cxx.o
 .debug_abbrev  0x0000000000000000      0x221 obj/Debug/system/stm32f1/src/newlib/_cxx.o
 .debug_aranges
                0x0000000000000000       0x28 obj/Debug/system/stm32f1/src/newlib/_cxx.o
 .debug_ranges  0x0000000000000000       0x18 obj/Debug/system/stm32f1/src/newlib/_cxx.o
 .debug_line    0x0000000000000000      0x205 obj/Debug/system/stm32f1/src/newlib/_cxx.o
 .debug_str     0x0000000000000000      0x39a obj/Debug/system/stm32f1/src/newlib/_cxx.o
 .comment       0x0000000000000000       0x5e obj/Debug/system/stm32f1/src/newlib/_cxx.o
 .debug_frame   0x0000000000000000       0x40 obj/Debug/system/stm32f1/src/newlib/_cxx.o
 .ARM.attributes
                0x0000000000000000       0x2d obj/Debug/system/stm32f1/src/newlib/_cxx.o
 .text          0x0000000000000000        0x0 obj/Debug/system/stm32f1/src/newlib/_exit.o
 .data          0x0000000000000000        0x0 obj/Debug/system/stm32f1/src/newlib/_exit.o
 .bss           0x0000000000000000        0x0 obj/Debug/system/stm32f1/src/newlib/_exit.o
 .text          0x0000000000000000        0x0 obj/Debug/system/stm32f1/src/newlib/_sbrk.o
 .data          0x0000000000000000        0x0 obj/Debug/system/stm32f1/src/newlib/_sbrk.o
 .bss           0x0000000000000000        0x0 obj/Debug/system/stm32f1/src/newlib/_sbrk.o
 .text._sbrk    0x0000000000000000       0x44 obj/Debug/system/stm32f1/src/newlib/_sbrk.o
 .bss.current_heap_end.0
                0x0000000000000000        0x4 obj/Debug/system/stm32f1/src/newlib/_sbrk.o
 .debug_info    0x0000000000000000      0x10e obj/Debug/system/stm32f1/src/newlib/_sbrk.o
 .debug_abbrev  0x0000000000000000       0xca obj/Debug/system/stm32f1/src/newlib/_sbrk.o
 .debug_loc     0x0000000000000000       0x97 obj/Debug/system/stm32f1/src/newlib/_sbrk.o
 .debug_aranges
                0x0000000000000000       0x20 obj/Debug/system/stm32f1/src/newlib/_sbrk.o
 .debug_ranges  0x0000000000000000       0x10 obj/Debug/system/stm32f1/src/newlib/_sbrk.o
 .debug_line    0x0000000000000000       0xeb obj/Debug/system/stm32f1/src/newlib/_sbrk.o
 .debug_str     0x0000000000000000      0x216 obj/Debug/system/stm32f1/src/newlib/_sbrk.o
 .comment       0x0000000000000000       0x5e obj/Debug/system/stm32f1/src/newlib/_sbrk.o
 .debug_frame   0x0000000000000000       0x28 obj/Debug/system/stm32f1/src/newlib/_sbrk.o
 .ARM.attributes
                0x0000000000000000       0x2d obj/Debug/system/stm32f1/src/newlib/_sbrk.o
 .text          0x0000000000000000        0x0 obj/Debug/system/stm32f1/src/newlib/_startup.o
 .data          0x0000000000000000        0x0 obj/Debug/system/stm32f1/src/newlib/_startup.o
 .bss           0x0000000000000000        0x0 obj/Debug/system/stm32f1/src/newlib/_startup.o
 .text.__initialize_data
                0x0000000000000000       0x10 obj/Debug/system/stm32f1/src/newlib/_startup.o
 .text.__initialize_bss
                0x0000000000000000        0xe obj/Debug/system/stm32f1/src/newlib/_startup.o
 .text.__run_init_array
                0x0000000000000000       0x48 obj/Debug/system/stm32f1/src/newlib/_startup.o
 .text.__run_fini_array
                0x0000000000000000       0x24 obj/Debug/system/stm32f1/src/newlib/_startup.o
 .text          0x0000000000000000        0x0 obj/Debug/system/stm32f1/src/newlib/_syscalls.o
 .data          0x0000000000000000        0x0 obj/Debug/system/stm32f1/src/newlib/_syscalls.o
 .bss           0x0000000000000000        0x0 obj/Debug/system/stm32f1/src/newlib/_syscalls.o
 .text.raise    0x0000000000000000       0x10 obj/Debug/system/stm32f1/src/newlib/_syscalls.o
 .text.kill     0x0000000000000000       0x10 obj/Debug/system/stm32f1/src/newlib/_syscalls.o
 .bss.__dso_handle
                0x0000000000000000        0x4 obj/Debug/system/stm32f1/src/newlib/_syscalls.o
 .bss.errno     0x0000000000000000        0x4 obj/Debug/system/stm32f1/src/newlib/_syscalls.o
 .text          0x0000000000000000        0x0 obj/Debug/system/stm32f1/src/newlib/_write.o
 .data          0x0000000000000000        0x0 obj/Debug/system/stm32f1/src/newlib/_write.o
 .bss           0x0000000000000000        0x0 obj/Debug/system/stm32f1/src/newlib/_write.o
 .debug_line    0x0000000000000000        0x0 obj/Debug/system/stm32f1/src/newlib/_write.o
 .debug_str     0x0000000000000000      0x128 obj/Debug/system/stm32f1/src/newlib/_write.o
 .comment       0x0000000000000000       0x5e obj/Debug/system/stm32f1/src/newlib/_write.o
 .ARM.attributes
                0x0000000000000000       0x33 obj/Debug/system/stm32f1/src/newlib/_write.o
 .text          0x0000000000000000        0x0 obj/Debug/system/stm32f1/src/newlib/assert.o
 .data          0x0000000000000000        0x0 obj/Debug/system/stm32f1/src/newlib/assert.o
 .bss           0x0000000000000000        0x0 obj/Debug/system/stm32f1/src/newlib/assert.o
 .text.__assert_func
                0x0000000000000000        0x6 obj/Debug/system/stm32f1/src/newlib/assert.o
 .text          0x0000000000000000        0x0 obj/Debug/system/stm32f1/src/stm32f1-stdperiph/misc.o
 .data          0x0000000000000000        0x0 obj/Debug/system/stm32f1/src/stm32f1-stdperiph/misc.o
 .bss           0x0000000000000000        0x0 obj/Debug/system/stm32f1/src/stm32f1-stdperiph/misc.o
 .text.NVIC_SetVectorTable
                0x0000000000000000       0x48 obj/Debug/system/stm32f1/src/stm32f1-stdperiph/misc.o
 .text.NVIC_SystemLPConfig
                0x0000000000000000       0x4c obj/Debug/system/stm32f1/src/stm32f1-stdperiph/misc.o
 .text.SysTick_CLKSourceConfig
                0x0000000000000000       0x3c obj/Debug/system/stm32f1/src/stm32f1-stdperiph/misc.o
 .text          0x0000000000000000        0x0 obj/Debug/system/stm32f1/src/stm32f1-stdperiph/stm32f10x_adc.o
 .data          0x0000000000000000        0x0 obj/Debug/system/stm32f1/src/stm32f1-stdperiph/stm32f10x_adc.o
 .bss           0x0000000000000000        0x0 obj/Debug/system/stm32f1/src/stm32f1-stdperiph/stm32f10x_adc.o
 .rodata.ADC_DeInit.str1.4
                0x0000000000000000       0x35 obj/Debug/system/stm32f1/src/stm32f1-stdperiph/stm32f10x_adc.o
 .text.ADC_DeInit
                0x0000000000000000       0x88 obj/Debug/system/stm32f1/src/stm32f1-stdperiph/stm32f10x_adc.o
 .text.ADC_Init
                0x0000000000000000      0x134 obj/Debug/system/stm32f1/src/stm32f1-stdperiph/stm32f10x_adc.o
 .text.ADC_StructInit
                0x0000000000000000       0x12 obj/Debug/system/stm32f1/src/stm32f1-stdperiph/stm32f10x_adc.o
 .text.ADC_Cmd  0x0000000000000000       0x54 obj/Debug/system/stm32f1/src/stm32f1-stdperiph/stm32f10x_adc.o
 .text.ADC_DMACmd
                0x0000000000000000       0x4c obj/Debug/system/stm32f1/src/stm32f1-stdperiph/stm32f10x_adc.o
 .text.ADC_ITConfig
                0x0000000000000000       0x6c obj/Debug/system/stm32f1/src/stm32f1-stdperiph/stm32f10x_adc.o
 .text.ADC_ResetCalibration
                0x0000000000000000       0x38 obj/Debug/system/stm32f1/src/stm32f1-stdperiph/stm32f10x_adc.o
 .text.ADC_GetResetCalibrationStatus
                0x0000000000000000       0x3c obj/Debug/system/stm32f1/src/stm32f1-stdperiph/stm32f10x_adc.o
 .text.ADC_StartCalibration
                0x0000000000000000       0x38 obj/Debug/system/stm32f1/src/stm32f1-stdperiph/stm32f10x_adc.o
 .text.ADC_GetCalibrationStatus
                0x0000000000000000       0x3c obj/Debug/system/stm32f1/src/stm32f1-stdperiph/stm32f10x_adc.o
 .text.ADC_SoftwareStartConvCmd
                0x0000000000000000       0x54 obj/Debug/system/stm32f1/src/stm32f1-stdperiph/stm32f10x_adc.o
 .text.ADC_GetSoftwareStartConvStatus
                0x0000000000000000       0x3c obj/Debug/system/stm32f1/src/stm32f1-stdperiph/stm32f10x_adc.o
 .text.ADC_DiscModeChannelCountConfig
                0x0000000000000000       0x54 obj/Debug/system/stm32f1/src/stm32f1-stdperiph/stm32f10x_adc.o
 .text.ADC_DiscModeCmd
                0x0000000000000000       0x54 obj/Debug/system/stm32f1/src/stm32f1-stdperiph/stm32f10x_adc.o
 .text.ADC_RegularChannelConfig
                0x0000000000000000       0xf0 obj/Debug/system/stm32f1/src/stm32f1-stdperiph/stm32f10x_adc.o
 .text.ADC_ExternalTrigConvCmd
                0x0000000000000000       0x54 obj/Debug/system/stm32f1/src/stm32f1-stdperiph/stm32f10x_adc.o
 .text.ADC_GetConversionValue
                0x0000000000000000       0x34 obj/Debug/system/stm32f1/src/stm32f1-stdperiph/stm32f10x_adc.o
 .text.ADC_GetDualModeConversionValue
                0x0000000000000000        0xc obj/Debug/system/stm32f1/src/stm32f1-stdperiph/stm32f10x_adc.o
 .text.ADC_AutoInjectedConvCmd
                0x0000000000000000       0x54 obj/Debug/system/stm32f1/src/stm32f1-stdperiph/stm32f10x_adc.o
 .text.ADC_InjectedDiscModeCmd
                0x0000000000000000       0x54 obj/Debug/system/stm32f1/src/stm32f1-stdperiph/stm32f10x_adc.o
 .text.ADC_ExternalTrigInjectedConvConfig
                0x0000000000000000       0x74 obj/Debug/system/stm32f1/src/stm32f1-stdperiph/stm32f10x_adc.o
 .text.ADC_ExternalTrigInjectedConvCmd
                0x0000000000000000       0x54 obj/Debug/system/stm32f1/src/stm32f1-stdperiph/stm32f10x_adc.o
 .text.ADC_SoftwareStartInjectedConvCmd
                0x0000000000000000       0x54 obj/Debug/system/stm32f1/src/stm32f1-stdperiph/stm32f10x_adc.o
 .text.ADC_GetSoftwareStartInjectedConvCmdStatus
                0x0000000000000000       0x3c obj/Debug/system/stm32f1/src/stm32f1-stdperiph/stm32f10x_adc.o
 .text.ADC_InjectedChannelConfig
                0x0000000000000000       0xc0 obj/Debug/system/stm32f1/src/stm32f1-stdperiph/stm32f10x_adc.o
 .text.ADC_InjectedSequencerLengthConfig
                0x0000000000000000       0x54 obj/Debug/system/stm32f1/src/stm32f1-stdperiph/stm32f10x_adc.o
 .text.ADC_SetInjectedOffset
                0x0000000000000000       0x74 obj/Debug/system/stm32f1/src/stm32f1-stdperiph/stm32f10x_adc.o
 .text.ADC_GetInjectedConversionValue
                0x0000000000000000       0x64 obj/Debug/system/stm32f1/src/stm32f1-stdperiph/stm32f10x_adc.o
 .text.ADC_AnalogWatchdogCmd
                0x0000000000000000       0x78 obj/Debug/system/stm32f1/src/stm32f1-stdperiph/stm32f10x_adc.o
 .text.ADC_AnalogWatchdogThresholdsConfig
                0x0000000000000000       0x5c obj/Debug/system/stm32f1/src/stm32f1-stdperiph/stm32f10x_adc.o
 .text.ADC_AnalogWatchdogSingleChannelConfig
                0x0000000000000000       0x4c obj/Debug/system/stm32f1/src/stm32f1-stdperiph/stm32f10x_adc.o
 .text.ADC_TempSensorVrefintCmd
                0x0000000000000000       0x38 obj/Debug/system/stm32f1/src/stm32f1-stdperiph/stm32f10x_adc.o
 .text.ADC_GetFlagStatus
                0x0000000000000000       0x5c obj/Debug/system/stm32f1/src/stm32f1-stdperiph/stm32f10x_adc.o
 .text.ADC_ClearFlag
                0x0000000000000000       0x48 obj/Debug/system/stm32f1/src/stm32f1-stdperiph/stm32f10x_adc.o
 .text.ADC_GetITStatus
                0x0000000000000000       0x68 obj/Debug/system/stm32f1/src/stm32f1-stdperiph/stm32f10x_adc.o
 .text.ADC_ClearITPendingBit
                0x0000000000000000       0x4c obj/Debug/system/stm32f1/src/stm32f1-stdperiph/stm32f10x_adc.o
 .debug_info    0x0000000000000000     0x1612 obj/Debug/system/stm32f1/src/stm32f1-stdperiph/stm32f10x_adc.o
 .debug_abbrev  0x0000000000000000      0x1fc obj/Debug/system/stm32f1/src/stm32f1-stdperiph/stm32f10x_adc.o
 .debug_loc     0x0000000000000000     0x10dc obj/Debug/system/stm32f1/src/stm32f1-stdperiph/stm32f10x_adc.o
 .debug_aranges
                0x0000000000000000      0x138 obj/Debug/system/stm32f1/src/stm32f1-stdperiph/stm32f10x_adc.o
 .debug_ranges  0x0000000000000000      0x128 obj/Debug/system/stm32f1/src/stm32f1-stdperiph/stm32f10x_adc.o
 .debug_line    0x0000000000000000     0x1020 obj/Debug/system/stm32f1/src/stm32f1-stdperiph/stm32f10x_adc.o
 .debug_str     0x0000000000000000      0x75d obj/Debug/system/stm32f1/src/stm32f1-stdperiph/stm32f10x_adc.o
 .comment       0x0000000000000000       0x5e obj/Debug/system/stm32f1/src/stm32f1-stdperiph/stm32f10x_adc.o
 .debug_frame   0x0000000000000000      0x3dc obj/Debug/system/stm32f1/src/stm32f1-stdperiph/stm32f10x_adc.o
 .ARM.attributes
                0x0000000000000000       0x2d obj/Debug/system/stm32f1/src/stm32f1-stdperiph/stm32f10x_adc.o
 .text          0x0000000000000000        0x0 obj/Debug/system/stm32f1/src/stm32f1-stdperiph/stm32f10x_dac.o
 .data          0x0000000000000000        0x0 obj/Debug/system/stm32f1/src/stm32f1-stdperiph/stm32f10x_dac.o
 .bss           0x0000000000000000        0x0 obj/Debug/system/stm32f1/src/stm32f1-stdperiph/stm32f10x_dac.o
 .text.DAC_DeInit
                0x0000000000000000       0x18 obj/Debug/system/stm32f1/src/stm32f1-stdperiph/stm32f10x_dac.o
 .rodata.DAC_Init.str1.4
                0x0000000000000000       0x35 obj/Debug/system/stm32f1/src/stm32f1-stdperiph/stm32f10x_dac.o
 .text.DAC_Init
                0x0000000000000000       0xdc obj/Debug/system/stm32f1/src/stm32f1-stdperiph/stm32f10x_dac.o
 .text.DAC_StructInit
                0x0000000000000000        0xc obj/Debug/system/stm32f1/src/stm32f1-stdperiph/stm32f10x_dac.o
 .text.DAC_Cmd  0x0000000000000000       0x50 obj/Debug/system/stm32f1/src/stm32f1-stdperiph/stm32f10x_dac.o
 .text.DAC_DMACmd
                0x0000000000000000       0x54 obj/Debug/system/stm32f1/src/stm32f1-stdperiph/stm32f10x_dac.o
 .text.DAC_SoftwareTriggerCmd
                0x0000000000000000       0x58 obj/Debug/system/stm32f1/src/stm32f1-stdperiph/stm32f10x_dac.o
 .text.DAC_DualSoftwareTriggerCmd
                0x0000000000000000       0x38 obj/Debug/system/stm32f1/src/stm32f1-stdperiph/stm32f10x_dac.o
 .text.DAC_WaveGenerationCmd
                0x0000000000000000       0x64 obj/Debug/system/stm32f1/src/stm32f1-stdperiph/stm32f10x_dac.o
 .text.DAC_SetChannel1Data
                0x0000000000000000       0x54 obj/Debug/system/stm32f1/src/stm32f1-stdperiph/stm32f10x_dac.o
 .text.DAC_SetChannel2Data
                0x0000000000000000       0x54 obj/Debug/system/stm32f1/src/stm32f1-stdperiph/stm32f10x_dac.o
 .text.DAC_SetDualChannelData
                0x0000000000000000       0x64 obj/Debug/system/stm32f1/src/stm32f1-stdperiph/stm32f10x_dac.o
 .text.DAC_GetDataOutputValue
                0x0000000000000000       0x3c obj/Debug/system/stm32f1/src/stm32f1-stdperiph/stm32f10x_dac.o
 .debug_info    0x0000000000000000      0x7d5 obj/Debug/system/stm32f1/src/stm32f1-stdperiph/stm32f10x_dac.o
 .debug_abbrev  0x0000000000000000      0x1eb obj/Debug/system/stm32f1/src/stm32f1-stdperiph/stm32f10x_dac.o
 .debug_loc     0x0000000000000000      0x668 obj/Debug/system/stm32f1/src/stm32f1-stdperiph/stm32f10x_dac.o
 .debug_aranges
                0x0000000000000000       0x78 obj/Debug/system/stm32f1/src/stm32f1-stdperiph/stm32f10x_dac.o
 .debug_ranges  0x0000000000000000       0x68 obj/Debug/system/stm32f1/src/stm32f1-stdperiph/stm32f10x_dac.o
 .debug_line    0x0000000000000000      0x5d6 obj/Debug/system/stm32f1/src/stm32f1-stdperiph/stm32f10x_dac.o
 .debug_str     0x0000000000000000      0x411 obj/Debug/system/stm32f1/src/stm32f1-stdperiph/stm32f10x_dac.o
 .comment       0x0000000000000000       0x5e obj/Debug/system/stm32f1/src/stm32f1-stdperiph/stm32f10x_dac.o
 .debug_frame   0x0000000000000000      0x160 obj/Debug/system/stm32f1/src/stm32f1-stdperiph/stm32f10x_dac.o
 .ARM.attributes
                0x0000000000000000       0x2d obj/Debug/system/stm32f1/src/stm32f1-stdperiph/stm32f10x_dac.o
 .text          0x0000000000000000        0x0 obj/Debug/system/stm32f1/src/stm32f1-stdperiph/stm32f10x_dma.o
 .data          0x0000000000000000        0x0 obj/Debug/system/stm32f1/src/stm32f1-stdperiph/stm32f10x_dma.o
 .bss           0x0000000000000000        0x0 obj/Debug/system/stm32f1/src/stm32f1-stdperiph/stm32f10x_dma.o
 .rodata.DMA_DeInit.str1.4
                0x0000000000000000       0x35 obj/Debug/system/stm32f1/src/stm32f1-stdperiph/stm32f10x_dma.o
 .text.DMA_DeInit
                0x0000000000000000      0x180 obj/Debug/system/stm32f1/src/stm32f1-stdperiph/stm32f10x_dma.o
 .text.DMA_Init
                0x0000000000000000      0x16c obj/Debug/system/stm32f1/src/stm32f1-stdperiph/stm32f10x_dma.o
 .text.DMA_StructInit
                0x0000000000000000       0x1a obj/Debug/system/stm32f1/src/stm32f1-stdperiph/stm32f10x_dma.o
 .text.DMA_Cmd  0x0000000000000000       0x8c obj/Debug/system/stm32f1/src/stm32f1-stdperiph/stm32f10x_dma.o
 .text.DMA_ITConfig
                0x0000000000000000       0x9c obj/Debug/system/stm32f1/src/stm32f1-stdperiph/stm32f10x_dma.o
 .text.DMA_SetCurrDataCounter
                0x0000000000000000       0x68 obj/Debug/system/stm32f1/src/stm32f1-stdperiph/stm32f10x_dma.o
 .text.DMA_GetCurrDataCounter
                0x0000000000000000       0x68 obj/Debug/system/stm32f1/src/stm32f1-stdperiph/stm32f10x_dma.o
 .text.DMA_GetFlagStatus
                0x0000000000000000      0x16c obj/Debug/system/stm32f1/src/stm32f1-stdperiph/stm32f10x_dma.o
 .text.DMA_ClearFlag
                0x0000000000000000       0x40 obj/Debug/system/stm32f1/src/stm32f1-stdperiph/stm32f10x_dma.o
 .text.DMA_GetITStatus
                0x0000000000000000      0x16c obj/Debug/system/stm32f1/src/stm32f1-stdperiph/stm32f10x_dma.o
 .text.DMA_ClearITPendingBit
                0x0000000000000000       0x40 obj/Debug/system/stm32f1/src/stm32f1-stdperiph/stm32f10x_dma.o
 .debug_info    0x0000000000000000      0x757 obj/Debug/system/stm32f1/src/stm32f1-stdperiph/stm32f10x_dma.o
 .debug_abbrev  0x0000000000000000      0x1bc obj/Debug/system/stm32f1/src/stm32f1-stdperiph/stm32f10x_dma.o
 .debug_loc     0x0000000000000000      0x3bf obj/Debug/system/stm32f1/src/stm32f1-stdperiph/stm32f10x_dma.o
 .debug_aranges
                0x0000000000000000       0x70 obj/Debug/system/stm32f1/src/stm32f1-stdperiph/stm32f10x_dma.o
 .debug_ranges  0x0000000000000000       0x60 obj/Debug/system/stm32f1/src/stm32f1-stdperiph/stm32f10x_dma.o
 .debug_line    0x0000000000000000      0x933 obj/Debug/system/stm32f1/src/stm32f1-stdperiph/stm32f10x_dma.o
 .debug_str     0x0000000000000000      0x414 obj/Debug/system/stm32f1/src/stm32f1-stdperiph/stm32f10x_dma.o
 .comment       0x0000000000000000       0x5e obj/Debug/system/stm32f1/src/stm32f1-stdperiph/stm32f10x_dma.o
 .debug_frame   0x0000000000000000      0x120 obj/Debug/system/stm32f1/src/stm32f1-stdperiph/stm32f10x_dma.o
 .ARM.attributes
                0x0000000000000000       0x2d obj/Debug/system/stm32f1/src/stm32f1-stdperiph/stm32f10x_dma.o
 .text          0x0000000000000000        0x0 obj/Debug/system/stm32f1/src/stm32f1-stdperiph/stm32f10x_exti.o
 .data          0x0000000000000000        0x0 obj/Debug/system/stm32f1/src/stm32f1-stdperiph/stm32f10x_exti.o
 .bss           0x0000000000000000        0x0 obj/Debug/system/stm32f1/src/stm32f1-stdperiph/stm32f10x_exti.o
 .text.EXTI_DeInit
                0x0000000000000000       0x1c obj/Debug/system/stm32f1/src/stm32f1-stdperiph/stm32f10x_exti.o
 .text.EXTI_GenerateSWInterrupt
                0x0000000000000000       0x28 obj/Debug/system/stm32f1/src/stm32f1-stdperiph/stm32f10x_exti.o
 .text.EXTI_GetFlagStatus
                0x0000000000000000       0x8c obj/Debug/system/stm32f1/src/stm32f1-stdperiph/stm32f10x_exti.o
 .text.EXTI_ClearFlag
                0x0000000000000000       0x24 obj/Debug/system/stm32f1/src/stm32f1-stdperiph/stm32f10x_exti.o
 .text          0x0000000000000000        0x0 obj/Debug/system/stm32f1/src/stm32f1-stdperiph/stm32f10x_flash.o
 .data          0x0000000000000000        0x0 obj/Debug/system/stm32f1/src/stm32f1-stdperiph/stm32f10x_flash.o
 .bss           0x0000000000000000        0x0 obj/Debug/system/stm32f1/src/stm32f1-stdperiph/stm32f10x_flash.o
 .rodata.FLASH_SetLatency.str1.4
                0x0000000000000000       0x37 obj/Debug/system/stm32f1/src/stm32f1-stdperiph/stm32f10x_flash.o
 .text.FLASH_SetLatency
                0x0000000000000000       0x2c obj/Debug/system/stm32f1/src/stm32f1-stdperiph/stm32f10x_flash.o
 .text.FLASH_HalfCycleAccessCmd
                0x0000000000000000       0x30 obj/Debug/system/stm32f1/src/stm32f1-stdperiph/stm32f10x_flash.o
 .text.FLASH_PrefetchBufferCmd
                0x0000000000000000       0x30 obj/Debug/system/stm32f1/src/stm32f1-stdperiph/stm32f10x_flash.o
 .text.FLASH_Unlock
                0x0000000000000000       0x18 obj/Debug/system/stm32f1/src/stm32f1-stdperiph/stm32f10x_flash.o
 .text.FLASH_UnlockBank1
                0x0000000000000000       0x18 obj/Debug/system/stm32f1/src/stm32f1-stdperiph/stm32f10x_flash.o
 .text.FLASH_Lock
                0x0000000000000000       0x10 obj/Debug/system/stm32f1/src/stm32f1-stdperiph/stm32f10x_flash.o
 .text.FLASH_LockBank1
                0x0000000000000000       0x10 obj/Debug/system/stm32f1/src/stm32f1-stdperiph/stm32f10x_flash.o
 .text.FLASH_GetUserOptionByte
                0x0000000000000000        0xc obj/Debug/system/stm32f1/src/stm32f1-stdperiph/stm32f10x_flash.o
 .text.FLASH_GetWriteProtectionOptionByte
                0x0000000000000000        0xc obj/Debug/system/stm32f1/src/stm32f1-stdperiph/stm32f10x_flash.o
 .text.FLASH_GetReadOutProtectionStatus
                0x0000000000000000       0x18 obj/Debug/system/stm32f1/src/stm32f1-stdperiph/stm32f10x_flash.o
 .text.FLASH_GetPrefetchBufferStatus
                0x0000000000000000       0x18 obj/Debug/system/stm32f1/src/stm32f1-stdperiph/stm32f10x_flash.o
 .text.FLASH_ITConfig
                0x0000000000000000       0x48 obj/Debug/system/stm32f1/src/stm32f1-stdperiph/stm32f10x_flash.o
 .text.FLASH_GetFlagStatus
                0x0000000000000000       0x50 obj/Debug/system/stm32f1/src/stm32f1-stdperiph/stm32f10x_flash.o
 .text.FLASH_ClearFlag
                0x0000000000000000       0x24 obj/Debug/system/stm32f1/src/stm32f1-stdperiph/stm32f10x_flash.o
 .text.FLASH_GetStatus
                0x0000000000000000       0x34 obj/Debug/system/stm32f1/src/stm32f1-stdperiph/stm32f10x_flash.o
 .text.FLASH_GetBank1Status
                0x0000000000000000       0x34 obj/Debug/system/stm32f1/src/stm32f1-stdperiph/stm32f10x_flash.o
 .text.FLASH_WaitForLastOperation
                0x0000000000000000       0x20 obj/Debug/system/stm32f1/src/stm32f1-stdperiph/stm32f10x_flash.o
 .text.FLASH_ErasePage
                0x0000000000000000       0x60 obj/Debug/system/stm32f1/src/stm32f1-stdperiph/stm32f10x_flash.o
 .text.FLASH_EraseAllPages
                0x0000000000000000       0x3c obj/Debug/system/stm32f1/src/stm32f1-stdperiph/stm32f10x_flash.o
 .text.FLASH_EraseOptionBytes
                0x0000000000000000       0x9c obj/Debug/system/stm32f1/src/stm32f1-stdperiph/stm32f10x_flash.o
 .text.FLASH_ProgramWord
                0x0000000000000000       0x8c obj/Debug/system/stm32f1/src/stm32f1-stdperiph/stm32f10x_flash.o
 .text.FLASH_ProgramHalfWord
                0x0000000000000000       0x58 obj/Debug/system/stm32f1/src/stm32f1-stdperiph/stm32f10x_flash.o
 .text.FLASH_ProgramOptionByteData
                0x0000000000000000       0x70 obj/Debug/system/stm32f1/src/stm32f1-stdperiph/stm32f10x_flash.o
 .text.FLASH_EnableWriteProtection
                0x0000000000000000       0xbc obj/Debug/system/stm32f1/src/stm32f1-stdperiph/stm32f10x_flash.o
 .text.FLASH_ReadOutProtection
                0x0000000000000000       0xb0 obj/Debug/system/stm32f1/src/stm32f1-stdperiph/stm32f10x_flash.o
 .text.FLASH_UserOptionByteConfig
                0x0000000000000000       0x98 obj/Debug/system/stm32f1/src/stm32f1-stdperiph/stm32f10x_flash.o
 .text.FLASH_WaitForLastBank1Operation
                0x0000000000000000       0x20 obj/Debug/system/stm32f1/src/stm32f1-stdperiph/stm32f10x_flash.o
 .text.FLASH_EraseAllBank1Pages
                0x0000000000000000       0x3c obj/Debug/system/stm32f1/src/stm32f1-stdperiph/stm32f10x_flash.o
 .debug_info    0x0000000000000000      0xcb3 obj/Debug/system/stm32f1/src/stm32f1-stdperiph/stm32f10x_flash.o
 .debug_abbrev  0x0000000000000000      0x1d3 obj/Debug/system/stm32f1/src/stm32f1-stdperiph/stm32f10x_flash.o
 .debug_loc     0x0000000000000000      0xb0b obj/Debug/system/stm32f1/src/stm32f1-stdperiph/stm32f10x_flash.o
 .debug_aranges
                0x0000000000000000       0xf8 obj/Debug/system/stm32f1/src/stm32f1-stdperiph/stm32f10x_flash.o
 .debug_ranges  0x0000000000000000       0xe8 obj/Debug/system/stm32f1/src/stm32f1-stdperiph/stm32f10x_flash.o
 .debug_line    0x0000000000000000      0xad3 obj/Debug/system/stm32f1/src/stm32f1-stdperiph/stm32f10x_flash.o
 .debug_str     0x0000000000000000      0x633 obj/Debug/system/stm32f1/src/stm32f1-stdperiph/stm32f10x_flash.o
 .comment       0x0000000000000000       0x5e obj/Debug/system/stm32f1/src/stm32f1-stdperiph/stm32f10x_flash.o
 .debug_frame   0x0000000000000000      0x288 obj/Debug/system/stm32f1/src/stm32f1-stdperiph/stm32f10x_flash.o
 .ARM.attributes
                0x0000000000000000       0x2d obj/Debug/system/stm32f1/src/stm32f1-stdperiph/stm32f10x_flash.o
 .text          0x0000000000000000        0x0 obj/Debug/system/stm32f1/src/stm32f1-stdperiph/stm32f10x_gpio.o
 .data          0x0000000000000000        0x0 obj/Debug/system/stm32f1/src/stm32f1-stdperiph/stm32f10x_gpio.o
 .bss           0x0000000000000000        0x0 obj/Debug/system/stm32f1/src/stm32f1-stdperiph/stm32f10x_gpio.o
 .text.GPIO_DeInit
                0x0000000000000000      0x110 obj/Debug/system/stm32f1/src/stm32f1-stdperiph/stm32f10x_gpio.o
 .text.GPIO_AFIODeInit
                0x0000000000000000       0x14 obj/Debug/system/stm32f1/src/stm32f1-stdperiph/stm32f10x_gpio.o
 .text.GPIO_ReadInputData
                0x0000000000000000       0x54 obj/Debug/system/stm32f1/src/stm32f1-stdperiph/stm32f10x_gpio.o
 .text.GPIO_ReadOutputDataBit
                0x0000000000000000       0xb8 obj/Debug/system/stm32f1/src/stm32f1-stdperiph/stm32f10x_gpio.o
 .text.GPIO_ReadOutputData
                0x0000000000000000       0x54 obj/Debug/system/stm32f1/src/stm32f1-stdperiph/stm32f10x_gpio.o
 .text.GPIO_WriteBit
                0x0000000000000000       0xc8 obj/Debug/system/stm32f1/src/stm32f1-stdperiph/stm32f10x_gpio.o
 .text.GPIO_Write
                0x0000000000000000       0x54 obj/Debug/system/stm32f1/src/stm32f1-stdperiph/stm32f10x_gpio.o
 .text.GPIO_PinLockConfig
                0x0000000000000000       0x6c obj/Debug/system/stm32f1/src/stm32f1-stdperiph/stm32f10x_gpio.o
 .text.GPIO_EventOutputConfig
                0x0000000000000000       0x44 obj/Debug/system/stm32f1/src/stm32f1-stdperiph/stm32f10x_gpio.o
 .text.GPIO_EventOutputCmd
                0x0000000000000000       0x24 obj/Debug/system/stm32f1/src/stm32f1-stdperiph/stm32f10x_gpio.o
 .text.GPIO_PinRemapConfig
                0x0000000000000000      0x1d4 obj/Debug/system/stm32f1/src/stm32f1-stdperiph/stm32f10x_gpio.o
 .text.GPIO_ETH_MediaInterfaceConfig
                0x0000000000000000       0x24 obj/Debug/system/stm32f1/src/stm32f1-stdperiph/stm32f10x_gpio.o
 .text          0x0000000000000000        0x0 obj/Debug/system/stm32f1/src/stm32f1-stdperiph/stm32f10x_i2c.o
 .data          0x0000000000000000        0x0 obj/Debug/system/stm32f1/src/stm32f1-stdperiph/stm32f10x_i2c.o
 .bss           0x0000000000000000        0x0 obj/Debug/system/stm32f1/src/stm32f1-stdperiph/stm32f10x_i2c.o
 .rodata.I2C_DeInit.str1.4
                0x0000000000000000       0x35 obj/Debug/system/stm32f1/src/stm32f1-stdperiph/stm32f10x_i2c.o
 .text.I2C_DeInit
                0x0000000000000000       0x54 obj/Debug/system/stm32f1/src/stm32f1-stdperiph/stm32f10x_i2c.o
 .text.I2C_Init
                0x0000000000000000      0x184 obj/Debug/system/stm32f1/src/stm32f1-stdperiph/stm32f10x_i2c.o
 .text.I2C_StructInit
                0x0000000000000000       0x1c obj/Debug/system/stm32f1/src/stm32f1-stdperiph/stm32f10x_i2c.o
 .text.I2C_Cmd  0x0000000000000000       0x54 obj/Debug/system/stm32f1/src/stm32f1-stdperiph/stm32f10x_i2c.o
 .text.I2C_DMACmd
                0x0000000000000000       0x54 obj/Debug/system/stm32f1/src/stm32f1-stdperiph/stm32f10x_i2c.o
 .text.I2C_DMALastTransferCmd
                0x0000000000000000       0x54 obj/Debug/system/stm32f1/src/stm32f1-stdperiph/stm32f10x_i2c.o
 .text.I2C_GenerateSTART
                0x0000000000000000       0x54 obj/Debug/system/stm32f1/src/stm32f1-stdperiph/stm32f10x_i2c.o
 .text.I2C_GenerateSTOP
                0x0000000000000000       0x54 obj/Debug/system/stm32f1/src/stm32f1-stdperiph/stm32f10x_i2c.o
 .text.I2C_AcknowledgeConfig
                0x0000000000000000       0x54 obj/Debug/system/stm32f1/src/stm32f1-stdperiph/stm32f10x_i2c.o
 .text.I2C_OwnAddress2Config
                0x0000000000000000       0x38 obj/Debug/system/stm32f1/src/stm32f1-stdperiph/stm32f10x_i2c.o
 .text.I2C_DualAddressCmd
                0x0000000000000000       0x54 obj/Debug/system/stm32f1/src/stm32f1-stdperiph/stm32f10x_i2c.o
 .text.I2C_GeneralCallCmd
                0x0000000000000000       0x54 obj/Debug/system/stm32f1/src/stm32f1-stdperiph/stm32f10x_i2c.o
 .text.I2C_ITConfig
                0x0000000000000000       0x64 obj/Debug/system/stm32f1/src/stm32f1-stdperiph/stm32f10x_i2c.o
 .text.I2C_SendData
                0x0000000000000000       0x2c obj/Debug/system/stm32f1/src/stm32f1-stdperiph/stm32f10x_i2c.o
 .text.I2C_ReceiveData
                0x0000000000000000       0x2c obj/Debug/system/stm32f1/src/stm32f1-stdperiph/stm32f10x_i2c.o
 .text.I2C_Send7bitAddress
                0x0000000000000000       0x4c obj/Debug/system/stm32f1/src/stm32f1-stdperiph/stm32f10x_i2c.o
 .text.I2C_ReadRegister
                0x0000000000000000       0x6c obj/Debug/system/stm32f1/src/stm32f1-stdperiph/stm32f10x_i2c.o
 .text.I2C_SoftwareResetCmd
                0x0000000000000000       0x54 obj/Debug/system/stm32f1/src/stm32f1-stdperiph/stm32f10x_i2c.o
 .text.I2C_NACKPositionConfig
                0x0000000000000000       0x60 obj/Debug/system/stm32f1/src/stm32f1-stdperiph/stm32f10x_i2c.o
 .text.I2C_SMBusAlertConfig
                0x0000000000000000       0x60 obj/Debug/system/stm32f1/src/stm32f1-stdperiph/stm32f10x_i2c.o
 .text.I2C_TransmitPEC
                0x0000000000000000       0x54 obj/Debug/system/stm32f1/src/stm32f1-stdperiph/stm32f10x_i2c.o
 .text.I2C_PECPositionConfig
                0x0000000000000000       0x60 obj/Debug/system/stm32f1/src/stm32f1-stdperiph/stm32f10x_i2c.o
 .text.I2C_CalculatePEC
                0x0000000000000000       0x54 obj/Debug/system/stm32f1/src/stm32f1-stdperiph/stm32f10x_i2c.o
 .text.I2C_GetPEC
                0x0000000000000000       0x2c obj/Debug/system/stm32f1/src/stm32f1-stdperiph/stm32f10x_i2c.o
 .text.I2C_ARPCmd
                0x0000000000000000       0x54 obj/Debug/system/stm32f1/src/stm32f1-stdperiph/stm32f10x_i2c.o
 .text.I2C_StretchClockCmd
                0x0000000000000000       0x54 obj/Debug/system/stm32f1/src/stm32f1-stdperiph/stm32f10x_i2c.o
 .text.I2C_FastModeDutyCycleConfig
                0x0000000000000000       0x60 obj/Debug/system/stm32f1/src/stm32f1-stdperiph/stm32f10x_i2c.o
 .text.I2C_CheckEvent
                0x0000000000000000       0xf0 obj/Debug/system/stm32f1/src/stm32f1-stdperiph/stm32f10x_i2c.o
 .text.I2C_GetLastEvent
                0x0000000000000000       0x34 obj/Debug/system/stm32f1/src/stm32f1-stdperiph/stm32f10x_i2c.o
 .text.I2C_GetFlagStatus
                0x0000000000000000       0xf8 obj/Debug/system/stm32f1/src/stm32f1-stdperiph/stm32f10x_i2c.o
 .text.I2C_ClearFlag
                0x0000000000000000       0x48 obj/Debug/system/stm32f1/src/stm32f1-stdperiph/stm32f10x_i2c.o
 .text.I2C_GetITStatus
                0x0000000000000000       0xbc obj/Debug/system/stm32f1/src/stm32f1-stdperiph/stm32f10x_i2c.o
 .text.I2C_ClearITPendingBit
                0x0000000000000000       0x48 obj/Debug/system/stm32f1/src/stm32f1-stdperiph/stm32f10x_i2c.o
 .debug_info    0x0000000000000000     0x148a obj/Debug/system/stm32f1/src/stm32f1-stdperiph/stm32f10x_i2c.o
 .debug_abbrev  0x0000000000000000      0x202 obj/Debug/system/stm32f1/src/stm32f1-stdperiph/stm32f10x_i2c.o
 .debug_loc     0x0000000000000000      0xe1f obj/Debug/system/stm32f1/src/stm32f1-stdperiph/stm32f10x_i2c.o
 .debug_aranges
                0x0000000000000000      0x120 obj/Debug/system/stm32f1/src/stm32f1-stdperiph/stm32f10x_i2c.o
 .debug_ranges  0x0000000000000000      0x110 obj/Debug/system/stm32f1/src/stm32f1-stdperiph/stm32f10x_i2c.o
 .debug_line    0x0000000000000000      0xeac obj/Debug/system/stm32f1/src/stm32f1-stdperiph/stm32f10x_i2c.o
 .debug_str     0x0000000000000000      0x6da obj/Debug/system/stm32f1/src/stm32f1-stdperiph/stm32f10x_i2c.o
 .comment       0x0000000000000000       0x5e obj/Debug/system/stm32f1/src/stm32f1-stdperiph/stm32f10x_i2c.o
 .debug_frame   0x0000000000000000      0x3ac obj/Debug/system/stm32f1/src/stm32f1-stdperiph/stm32f10x_i2c.o
 .ARM.attributes
                0x0000000000000000       0x2d obj/Debug/system/stm32f1/src/stm32f1-stdperiph/stm32f10x_i2c.o
 .text          0x0000000000000000        0x0 obj/Debug/system/stm32f1/src/stm32f1-stdperiph/stm32f10x_rcc.o
 .data          0x0000000000000000        0x0 obj/Debug/system/stm32f1/src/stm32f1-stdperiph/stm32f10x_rcc.o
 .bss           0x0000000000000000        0x0 obj/Debug/system/stm32f1/src/stm32f1-stdperiph/stm32f10x_rcc.o
 .text.RCC_AdjustHSICalibrationValue
                0x0000000000000000       0x2c obj/Debug/system/stm32f1/src/stm32f1-stdperiph/stm32f10x_rcc.o
 .text.RCC_HSICmd
                0x0000000000000000       0x24 obj/Debug/system/stm32f1/src/stm32f1-stdperiph/stm32f10x_rcc.o
 .text.RCC_PLL3Config
                0x0000000000000000       0x5c obj/Debug/system/stm32f1/src/stm32f1-stdperiph/stm32f10x_rcc.o
 .text.RCC_PLL3Cmd
                0x0000000000000000       0x24 obj/Debug/system/stm32f1/src/stm32f1-stdperiph/stm32f10x_rcc.o
 .text.RCC_ITConfig
                0x0000000000000000       0x48 obj/Debug/system/stm32f1/src/stm32f1-stdperiph/stm32f10x_rcc.o
 .text.RCC_OTGFSCLKConfig
                0x0000000000000000       0x24 obj/Debug/system/stm32f1/src/stm32f1-stdperiph/stm32f10x_rcc.o
 .text.RCC_ADCCLKConfig
                0x0000000000000000       0x3c obj/Debug/system/stm32f1/src/stm32f1-stdperiph/stm32f10x_rcc.o
 .text.RCC_I2S2CLKConfig
                0x0000000000000000       0x24 obj/Debug/system/stm32f1/src/stm32f1-stdperiph/stm32f10x_rcc.o
 .text.RCC_I2S3CLKConfig
                0x0000000000000000       0x24 obj/Debug/system/stm32f1/src/stm32f1-stdperiph/stm32f10x_rcc.o
 .text.RCC_LSEConfig
                0x0000000000000000       0x4c obj/Debug/system/stm32f1/src/stm32f1-stdperiph/stm32f10x_rcc.o
 .text.RCC_LSICmd
                0x0000000000000000       0x24 obj/Debug/system/stm32f1/src/stm32f1-stdperiph/stm32f10x_rcc.o
 .text.RCC_RTCCLKConfig
                0x0000000000000000       0x34 obj/Debug/system/stm32f1/src/stm32f1-stdperiph/stm32f10x_rcc.o
 .text.RCC_RTCCLKCmd
                0x0000000000000000       0x24 obj/Debug/system/stm32f1/src/stm32f1-stdperiph/stm32f10x_rcc.o
 .text.RCC_AHBPeriphClockCmd
                0x0000000000000000       0x4c obj/Debug/system/stm32f1/src/stm32f1-stdperiph/stm32f10x_rcc.o
 .text.RCC_AHBPeriphResetCmd
                0x0000000000000000       0x48 obj/Debug/system/stm32f1/src/stm32f1-stdperiph/stm32f10x_rcc.o
 .text.RCC_APB2PeriphResetCmd
                0x0000000000000000       0x4c obj/Debug/system/stm32f1/src/stm32f1-stdperiph/stm32f10x_rcc.o
 .text.RCC_APB1PeriphResetCmd
                0x0000000000000000       0x4c obj/Debug/system/stm32f1/src/stm32f1-stdperiph/stm32f10x_rcc.o
 .text.RCC_BackupResetCmd
                0x0000000000000000       0x24 obj/Debug/system/stm32f1/src/stm32f1-stdperiph/stm32f10x_rcc.o
 .text.RCC_ClockSecuritySystemCmd
                0x0000000000000000       0x24 obj/Debug/system/stm32f1/src/stm32f1-stdperiph/stm32f10x_rcc.o
 .text.RCC_MCOConfig
                0x0000000000000000       0x40 obj/Debug/system/stm32f1/src/stm32f1-stdperiph/stm32f10x_rcc.o
 .text.RCC_ClearFlag
                0x0000000000000000       0x10 obj/Debug/system/stm32f1/src/stm32f1-stdperiph/stm32f10x_rcc.o
 .text.RCC_GetITStatus
                0x0000000000000000       0x48 obj/Debug/system/stm32f1/src/stm32f1-stdperiph/stm32f10x_rcc.o
 .text.RCC_ClearITPendingBit
                0x0000000000000000       0x20 obj/Debug/system/stm32f1/src/stm32f1-stdperiph/stm32f10x_rcc.o
 .text          0x0000000000000000        0x0 obj/Debug/system/stm32f1/src/stm32f1-stdperiph/stm32f10x_sdio.o
 .data          0x0000000000000000        0x0 obj/Debug/system/stm32f1/src/stm32f1-stdperiph/stm32f10x_sdio.o
 .bss           0x0000000000000000        0x0 obj/Debug/system/stm32f1/src/stm32f1-stdperiph/stm32f10x_sdio.o
 .text.SDIO_DeInit
                0x0000000000000000       0x24 obj/Debug/system/stm32f1/src/stm32f1-stdperiph/stm32f10x_sdio.o
 .rodata.SDIO_Init.str1.4
                0x0000000000000000       0x36 obj/Debug/system/stm32f1/src/stm32f1-stdperiph/stm32f10x_sdio.o
 .text.SDIO_Init
                0x0000000000000000       0xa0 obj/Debug/system/stm32f1/src/stm32f1-stdperiph/stm32f10x_sdio.o
 .text.SDIO_StructInit
                0x0000000000000000       0x10 obj/Debug/system/stm32f1/src/stm32f1-stdperiph/stm32f10x_sdio.o
 .text.SDIO_ClockCmd
                0x0000000000000000       0x24 obj/Debug/system/stm32f1/src/stm32f1-stdperiph/stm32f10x_sdio.o
 .text.SDIO_SetPowerState
                0x0000000000000000       0x30 obj/Debug/system/stm32f1/src/stm32f1-stdperiph/stm32f10x_sdio.o
 .text.SDIO_GetPowerState
                0x0000000000000000       0x10 obj/Debug/system/stm32f1/src/stm32f1-stdperiph/stm32f10x_sdio.o
 .text.SDIO_ITConfig
                0x0000000000000000       0x48 obj/Debug/system/stm32f1/src/stm32f1-stdperiph/stm32f10x_sdio.o
 .text.SDIO_DMACmd
                0x0000000000000000       0x24 obj/Debug/system/stm32f1/src/stm32f1-stdperiph/stm32f10x_sdio.o
 .text.SDIO_SendCommand
                0x0000000000000000       0x8c obj/Debug/system/stm32f1/src/stm32f1-stdperiph/stm32f10x_sdio.o
 .text.SDIO_CmdStructInit
                0x0000000000000000        0xe obj/Debug/system/stm32f1/src/stm32f1-stdperiph/stm32f10x_sdio.o
 .text.SDIO_GetCommandResponse
                0x0000000000000000        0xc obj/Debug/system/stm32f1/src/stm32f1-stdperiph/stm32f10x_sdio.o
 .text.SDIO_GetResponse
                0x0000000000000000       0x3c obj/Debug/system/stm32f1/src/stm32f1-stdperiph/stm32f10x_sdio.o
 .text.SDIO_DataConfig
                0x0000000000000000       0xc8 obj/Debug/system/stm32f1/src/stm32f1-stdperiph/stm32f10x_sdio.o
 .text.SDIO_DataStructInit
                0x0000000000000000       0x14 obj/Debug/system/stm32f1/src/stm32f1-stdperiph/stm32f10x_sdio.o
 .text.SDIO_GetDataCounter
                0x0000000000000000        0xc obj/Debug/system/stm32f1/src/stm32f1-stdperiph/stm32f10x_sdio.o
 .text.SDIO_ReadData
                0x0000000000000000        0xc obj/Debug/system/stm32f1/src/stm32f1-stdperiph/stm32f10x_sdio.o
 .text.SDIO_WriteData
                0x0000000000000000        0xc obj/Debug/system/stm32f1/src/stm32f1-stdperiph/stm32f10x_sdio.o
 .text.SDIO_GetFIFOCount
                0x0000000000000000        0xc obj/Debug/system/stm32f1/src/stm32f1-stdperiph/stm32f10x_sdio.o
 .text.SDIO_StartSDIOReadWait
                0x0000000000000000       0x24 obj/Debug/system/stm32f1/src/stm32f1-stdperiph/stm32f10x_sdio.o
 .text.SDIO_StopSDIOReadWait
                0x0000000000000000       0x24 obj/Debug/system/stm32f1/src/stm32f1-stdperiph/stm32f10x_sdio.o
 .text.SDIO_SetSDIOReadWaitMode
                0x0000000000000000       0x24 obj/Debug/system/stm32f1/src/stm32f1-stdperiph/stm32f10x_sdio.o
 .text.SDIO_SetSDIOOperation
                0x0000000000000000       0x24 obj/Debug/system/stm32f1/src/stm32f1-stdperiph/stm32f10x_sdio.o
 .text.SDIO_SendSDIOSuspendCmd
                0x0000000000000000       0x24 obj/Debug/system/stm32f1/src/stm32f1-stdperiph/stm32f10x_sdio.o
 .text.SDIO_CommandCompletionCmd
                0x0000000000000000       0x24 obj/Debug/system/stm32f1/src/stm32f1-stdperiph/stm32f10x_sdio.o
 .text.SDIO_CEATAITCmd
                0x0000000000000000       0x2c obj/Debug/system/stm32f1/src/stm32f1-stdperiph/stm32f10x_sdio.o
 .text.SDIO_SendCEATACmd
                0x0000000000000000       0x24 obj/Debug/system/stm32f1/src/stm32f1-stdperiph/stm32f10x_sdio.o
 .text.SDIO_GetFlagStatus
                0x0000000000000000       0xa8 obj/Debug/system/stm32f1/src/stm32f1-stdperiph/stm32f10x_sdio.o
 .text.SDIO_ClearFlag
                0x0000000000000000       0x28 obj/Debug/system/stm32f1/src/stm32f1-stdperiph/stm32f10x_sdio.o
 .text.SDIO_GetITStatus
                0x0000000000000000       0xa8 obj/Debug/system/stm32f1/src/stm32f1-stdperiph/stm32f10x_sdio.o
 .text.SDIO_ClearITPendingBit
                0x0000000000000000       0x28 obj/Debug/system/stm32f1/src/stm32f1-stdperiph/stm32f10x_sdio.o
 .debug_info    0x0000000000000000      0xc19 obj/Debug/system/stm32f1/src/stm32f1-stdperiph/stm32f10x_sdio.o
 .debug_abbrev  0x0000000000000000      0x22d obj/Debug/system/stm32f1/src/stm32f1-stdperiph/stm32f10x_sdio.o
 .debug_loc     0x0000000000000000      0x63c obj/Debug/system/stm32f1/src/stm32f1-stdperiph/stm32f10x_sdio.o
 .debug_aranges
                0x0000000000000000      0x108 obj/Debug/system/stm32f1/src/stm32f1-stdperiph/stm32f10x_sdio.o
 .debug_ranges  0x0000000000000000       0xf8 obj/Debug/system/stm32f1/src/stm32f1-stdperiph/stm32f10x_sdio.o
 .debug_line    0x0000000000000000      0x96b obj/Debug/system/stm32f1/src/stm32f1-stdperiph/stm32f10x_sdio.o
 .debug_str     0x0000000000000000      0x686 obj/Debug/system/stm32f1/src/stm32f1-stdperiph/stm32f10x_sdio.o
 .comment       0x0000000000000000       0x5e obj/Debug/system/stm32f1/src/stm32f1-stdperiph/stm32f10x_sdio.o
 .debug_frame   0x0000000000000000      0x29c obj/Debug/system/stm32f1/src/stm32f1-stdperiph/stm32f10x_sdio.o
 .ARM.attributes
                0x0000000000000000       0x2d obj/Debug/system/stm32f1/src/stm32f1-stdperiph/stm32f10x_sdio.o
 .text          0x0000000000000000        0x0 obj/Debug/system/stm32f1/src/stm32f1-stdperiph/stm32f10x_spi.o
 .data          0x0000000000000000        0x0 obj/Debug/system/stm32f1/src/stm32f1-stdperiph/stm32f10x_spi.o
 .bss           0x0000000000000000        0x0 obj/Debug/system/stm32f1/src/stm32f1-stdperiph/stm32f10x_spi.o
 .rodata.SPI_I2S_DeInit.str1.4
                0x0000000000000000       0x35 obj/Debug/system/stm32f1/src/stm32f1-stdperiph/stm32f10x_spi.o
 .text.SPI_I2S_DeInit
                0x0000000000000000       0x88 obj/Debug/system/stm32f1/src/stm32f1-stdperiph/stm32f10x_spi.o
 .text.SPI_Init
                0x0000000000000000      0x148 obj/Debug/system/stm32f1/src/stm32f1-stdperiph/stm32f10x_spi.o
 .text.I2S_Init
                0x0000000000000000      0x1c8 obj/Debug/system/stm32f1/src/stm32f1-stdperiph/stm32f10x_spi.o
 .text.SPI_StructInit
                0x0000000000000000       0x18 obj/Debug/system/stm32f1/src/stm32f1-stdperiph/stm32f10x_spi.o
 .text.I2S_StructInit
                0x0000000000000000       0x12 obj/Debug/system/stm32f1/src/stm32f1-stdperiph/stm32f10x_spi.o
 .text.SPI_Cmd  0x0000000000000000       0x5c obj/Debug/system/stm32f1/src/stm32f1-stdperiph/stm32f10x_spi.o
 .text.I2S_Cmd  0x0000000000000000       0x54 obj/Debug/system/stm32f1/src/stm32f1-stdperiph/stm32f10x_spi.o
 .text.SPI_I2S_ITConfig
                0x0000000000000000       0x78 obj/Debug/system/stm32f1/src/stm32f1-stdperiph/stm32f10x_spi.o
 .text.SPI_I2S_DMACmd
                0x0000000000000000       0x6c obj/Debug/system/stm32f1/src/stm32f1-stdperiph/stm32f10x_spi.o
 .text.SPI_I2S_SendData
                0x0000000000000000       0x34 obj/Debug/system/stm32f1/src/stm32f1-stdperiph/stm32f10x_spi.o
 .text.SPI_I2S_ReceiveData
                0x0000000000000000       0x34 obj/Debug/system/stm32f1/src/stm32f1-stdperiph/stm32f10x_spi.o
 .text.SPI_NSSInternalSoftwareConfig
                0x0000000000000000       0x6c obj/Debug/system/stm32f1/src/stm32f1-stdperiph/stm32f10x_spi.o
 .text.SPI_SSOutputCmd
                0x0000000000000000       0x5c obj/Debug/system/stm32f1/src/stm32f1-stdperiph/stm32f10x_spi.o
 .text.SPI_DataSizeConfig
                0x0000000000000000       0x5c obj/Debug/system/stm32f1/src/stm32f1-stdperiph/stm32f10x_spi.o
 .text.SPI_TransmitCRC
                0x0000000000000000       0x38 obj/Debug/system/stm32f1/src/stm32f1-stdperiph/stm32f10x_spi.o
 .text.SPI_CalculateCRC
                0x0000000000000000       0x5c obj/Debug/system/stm32f1/src/stm32f1-stdperiph/stm32f10x_spi.o
 .text.SPI_GetCRC
                0x0000000000000000       0x50 obj/Debug/system/stm32f1/src/stm32f1-stdperiph/stm32f10x_spi.o
 .text.SPI_GetCRCPolynomial
                0x0000000000000000       0x34 obj/Debug/system/stm32f1/src/stm32f1-stdperiph/stm32f10x_spi.o
 .text.SPI_BiDirectionalLineConfig
                0x0000000000000000       0x68 obj/Debug/system/stm32f1/src/stm32f1-stdperiph/stm32f10x_spi.o
 .text.SPI_I2S_GetFlagStatus
                0x0000000000000000       0x68 obj/Debug/system/stm32f1/src/stm32f1-stdperiph/stm32f10x_spi.o
 .text.SPI_I2S_ClearFlag
                0x0000000000000000       0x48 obj/Debug/system/stm32f1/src/stm32f1-stdperiph/stm32f10x_spi.o
 .text.SPI_I2S_GetITStatus
                0x0000000000000000       0x80 obj/Debug/system/stm32f1/src/stm32f1-stdperiph/stm32f10x_spi.o
 .text.SPI_I2S_ClearITPendingBit
                0x0000000000000000       0x50 obj/Debug/system/stm32f1/src/stm32f1-stdperiph/stm32f10x_spi.o
 .debug_info    0x0000000000000000     0x11a9 obj/Debug/system/stm32f1/src/stm32f1-stdperiph/stm32f10x_spi.o
 .debug_abbrev  0x0000000000000000      0x1f4 obj/Debug/system/stm32f1/src/stm32f1-stdperiph/stm32f10x_spi.o
 .debug_loc     0x0000000000000000      0xa91 obj/Debug/system/stm32f1/src/stm32f1-stdperiph/stm32f10x_spi.o
 .debug_aranges
                0x0000000000000000       0xd0 obj/Debug/system/stm32f1/src/stm32f1-stdperiph/stm32f10x_spi.o
 .debug_ranges  0x0000000000000000       0xc0 obj/Debug/system/stm32f1/src/stm32f1-stdperiph/stm32f10x_spi.o
 .debug_line    0x0000000000000000      0xba1 obj/Debug/system/stm32f1/src/stm32f1-stdperiph/stm32f10x_spi.o
 .debug_str     0x0000000000000000      0x6d5 obj/Debug/system/stm32f1/src/stm32f1-stdperiph/stm32f10x_spi.o
 .comment       0x0000000000000000       0x5e obj/Debug/system/stm32f1/src/stm32f1-stdperiph/stm32f10x_spi.o
 .debug_frame   0x0000000000000000      0x27c obj/Debug/system/stm32f1/src/stm32f1-stdperiph/stm32f10x_spi.o
 .ARM.attributes
                0x0000000000000000       0x2d obj/Debug/system/stm32f1/src/stm32f1-stdperiph/stm32f10x_spi.o
 .text          0x0000000000000000        0x0 obj/Debug/system/stm32f1/src/stm32f1-stdperiph/stm32f10x_tim.o
 .data          0x0000000000000000        0x0 obj/Debug/system/stm32f1/src/stm32f1-stdperiph/stm32f10x_tim.o
 .bss           0x0000000000000000        0x0 obj/Debug/system/stm32f1/src/stm32f1-stdperiph/stm32f10x_tim.o
 .text.TI1_Config
                0x0000000000000000       0x88 obj/Debug/system/stm32f1/src/stm32f1-stdperiph/stm32f10x_tim.o
 .text.TI2_Config
                0x0000000000000000       0x94 obj/Debug/system/stm32f1/src/stm32f1-stdperiph/stm32f10x_tim.o
 .text.TI3_Config
                0x0000000000000000       0x84 obj/Debug/system/stm32f1/src/stm32f1-stdperiph/stm32f10x_tim.o
 .text.TI4_Config
                0x0000000000000000       0x98 obj/Debug/system/stm32f1/src/stm32f1-stdperiph/stm32f10x_tim.o
 .text.TIM_DeInit
                0x0000000000000000      0x29c obj/Debug/system/stm32f1/src/stm32f1-stdperiph/stm32f10x_tim.o
 .text.TIM_OC1Init
                0x0000000000000000      0x1b4 obj/Debug/system/stm32f1/src/stm32f1-stdperiph/stm32f10x_tim.o
 .text.TIM_OC2Init
                0x0000000000000000      0x18c obj/Debug/system/stm32f1/src/stm32f1-stdperiph/stm32f10x_tim.o
 .text.TIM_OC3Init
                0x0000000000000000      0x170 obj/Debug/system/stm32f1/src/stm32f1-stdperiph/stm32f10x_tim.o
 .text.TIM_OC4Init
                0x0000000000000000      0x110 obj/Debug/system/stm32f1/src/stm32f1-stdperiph/stm32f10x_tim.o
 .text.TIM_BDTRConfig
                0x0000000000000000       0xf8 obj/Debug/system/stm32f1/src/stm32f1-stdperiph/stm32f10x_tim.o
 .text.TIM_TimeBaseStructInit
                0x0000000000000000       0x12 obj/Debug/system/stm32f1/src/stm32f1-stdperiph/stm32f10x_tim.o
 .text.TIM_OCStructInit
                0x0000000000000000       0x14 obj/Debug/system/stm32f1/src/stm32f1-stdperiph/stm32f10x_tim.o
 .text.TIM_ICStructInit
                0x0000000000000000       0x10 obj/Debug/system/stm32f1/src/stm32f1-stdperiph/stm32f10x_tim.o
 .text.TIM_BDTRStructInit
                0x0000000000000000       0x12 obj/Debug/system/stm32f1/src/stm32f1-stdperiph/stm32f10x_tim.o
 .text.TIM_CtrlPWMOutputs
                0x0000000000000000       0x74 obj/Debug/system/stm32f1/src/stm32f1-stdperiph/stm32f10x_tim.o
 .text.TIM_GenerateEvent
                0x0000000000000000       0xb4 obj/Debug/system/stm32f1/src/stm32f1-stdperiph/stm32f10x_tim.o
 .text.TIM_DMAConfig
                0x0000000000000000       0xec obj/Debug/system/stm32f1/src/stm32f1-stdperiph/stm32f10x_tim.o
 .text.TIM_DMACmd
                0x0000000000000000       0xac obj/Debug/system/stm32f1/src/stm32f1-stdperiph/stm32f10x_tim.o
 .text.TIM_InternalClockConfig
                0x0000000000000000       0x68 obj/Debug/system/stm32f1/src/stm32f1-stdperiph/stm32f10x_tim.o
 .text.TIM_ETRConfig
                0x0000000000000000       0xa4 obj/Debug/system/stm32f1/src/stm32f1-stdperiph/stm32f10x_tim.o
 .text.TIM_ETRClockMode1Config
                0x0000000000000000       0xa4 obj/Debug/system/stm32f1/src/stm32f1-stdperiph/stm32f10x_tim.o
 .text.TIM_ETRClockMode2Config
                0x0000000000000000       0xa4 obj/Debug/system/stm32f1/src/stm32f1-stdperiph/stm32f10x_tim.o
 .text.TIM_PrescalerConfig
                0x0000000000000000       0xb4 obj/Debug/system/stm32f1/src/stm32f1-stdperiph/stm32f10x_tim.o
 .text.TIM_CounterModeConfig
                0x0000000000000000       0x74 obj/Debug/system/stm32f1/src/stm32f1-stdperiph/stm32f10x_tim.o
 .text.TIM_SelectInputTrigger
                0x0000000000000000       0x98 obj/Debug/system/stm32f1/src/stm32f1-stdperiph/stm32f10x_tim.o
 .text.TIM_ITRxExternalClockConfig
                0x0000000000000000       0x8c obj/Debug/system/stm32f1/src/stm32f1-stdperiph/stm32f10x_tim.o
 .text.TIM_TIxExternalClockConfig
                0x0000000000000000       0xcc obj/Debug/system/stm32f1/src/stm32f1-stdperiph/stm32f10x_tim.o
 .text.TIM_EncoderInterfaceConfig
                0x0000000000000000       0xc0 obj/Debug/system/stm32f1/src/stm32f1-stdperiph/stm32f10x_tim.o
 .text.TIM_ForcedOC1Config
                0x0000000000000000       0xb0 obj/Debug/system/stm32f1/src/stm32f1-stdperiph/stm32f10x_tim.o
 .text.TIM_ForcedOC2Config
                0x0000000000000000       0x84 obj/Debug/system/stm32f1/src/stm32f1-stdperiph/stm32f10x_tim.o
 .text.TIM_ForcedOC3Config
                0x0000000000000000       0x68 obj/Debug/system/stm32f1/src/stm32f1-stdperiph/stm32f10x_tim.o
 .text.TIM_ForcedOC4Config
                0x0000000000000000       0x6c obj/Debug/system/stm32f1/src/stm32f1-stdperiph/stm32f10x_tim.o
 .text.TIM_ARRPreloadConfig
                0x0000000000000000       0xc8 obj/Debug/system/stm32f1/src/stm32f1-stdperiph/stm32f10x_tim.o
 .text.TIM_SelectCOM
                0x0000000000000000       0x6c obj/Debug/system/stm32f1/src/stm32f1-stdperiph/stm32f10x_tim.o
 .text.TIM_SelectCCDMA
                0x0000000000000000       0x88 obj/Debug/system/stm32f1/src/stm32f1-stdperiph/stm32f10x_tim.o
 .text.TIM_CCPreloadControl
                0x0000000000000000       0x78 obj/Debug/system/stm32f1/src/stm32f1-stdperiph/stm32f10x_tim.o
 .text.TIM_OC1PreloadConfig
                0x0000000000000000       0xb0 obj/Debug/system/stm32f1/src/stm32f1-stdperiph/stm32f10x_tim.o
 .text.TIM_OC2PreloadConfig
                0x0000000000000000       0x80 obj/Debug/system/stm32f1/src/stm32f1-stdperiph/stm32f10x_tim.o
 .text.TIM_OC3PreloadConfig
                0x0000000000000000       0x68 obj/Debug/system/stm32f1/src/stm32f1-stdperiph/stm32f10x_tim.o
 .text.TIM_OC4PreloadConfig
                0x0000000000000000       0x68 obj/Debug/system/stm32f1/src/stm32f1-stdperiph/stm32f10x_tim.o
 .text.TIM_OC1FastConfig
                0x0000000000000000       0xb0 obj/Debug/system/stm32f1/src/stm32f1-stdperiph/stm32f10x_tim.o
 .text.TIM_OC2FastConfig
                0x0000000000000000       0x80 obj/Debug/system/stm32f1/src/stm32f1-stdperiph/stm32f10x_tim.o
 .text.TIM_OC3FastConfig
                0x0000000000000000       0x68 obj/Debug/system/stm32f1/src/stm32f1-stdperiph/stm32f10x_tim.o
 .text.TIM_OC4FastConfig
                0x0000000000000000       0x68 obj/Debug/system/stm32f1/src/stm32f1-stdperiph/stm32f10x_tim.o
 .text.TIM_ClearOC1Ref
                0x0000000000000000       0x68 obj/Debug/system/stm32f1/src/stm32f1-stdperiph/stm32f10x_tim.o
 .text.TIM_ClearOC2Ref
                0x0000000000000000       0x68 obj/Debug/system/stm32f1/src/stm32f1-stdperiph/stm32f10x_tim.o
 .text.TIM_ClearOC3Ref
                0x0000000000000000       0x68 obj/Debug/system/stm32f1/src/stm32f1-stdperiph/stm32f10x_tim.o
 .text.TIM_ClearOC4Ref
                0x0000000000000000       0x68 obj/Debug/system/stm32f1/src/stm32f1-stdperiph/stm32f10x_tim.o
 .text.TIM_OC1PolarityConfig
                0x0000000000000000       0xb0 obj/Debug/system/stm32f1/src/stm32f1-stdperiph/stm32f10x_tim.o
 .text.TIM_OC1NPolarityConfig
                0x0000000000000000       0x60 obj/Debug/system/stm32f1/src/stm32f1-stdperiph/stm32f10x_tim.o
 .text.TIM_OC2PolarityConfig
                0x0000000000000000       0x80 obj/Debug/system/stm32f1/src/stm32f1-stdperiph/stm32f10x_tim.o
 .text.TIM_OC2NPolarityConfig
                0x0000000000000000       0x4c obj/Debug/system/stm32f1/src/stm32f1-stdperiph/stm32f10x_tim.o
 .text.TIM_OC3PolarityConfig
                0x0000000000000000       0x68 obj/Debug/system/stm32f1/src/stm32f1-stdperiph/stm32f10x_tim.o
 .text.TIM_OC3NPolarityConfig
                0x0000000000000000       0x4c obj/Debug/system/stm32f1/src/stm32f1-stdperiph/stm32f10x_tim.o
 .text.TIM_OC4PolarityConfig
                0x0000000000000000       0x68 obj/Debug/system/stm32f1/src/stm32f1-stdperiph/stm32f10x_tim.o
 .text.TIM_CCxCmd
                0x0000000000000000       0xd8 obj/Debug/system/stm32f1/src/stm32f1-stdperiph/stm32f10x_tim.o
 .text.TIM_CCxNCmd
                0x0000000000000000       0x88 obj/Debug/system/stm32f1/src/stm32f1-stdperiph/stm32f10x_tim.o
 .text.TIM_SelectOCxM
                0x0000000000000000      0x118 obj/Debug/system/stm32f1/src/stm32f1-stdperiph/stm32f10x_tim.o
 .text.TIM_UpdateDisableConfig
                0x0000000000000000       0xc8 obj/Debug/system/stm32f1/src/stm32f1-stdperiph/stm32f10x_tim.o
 .text.TIM_UpdateRequestConfig
                0x0000000000000000       0xc8 obj/Debug/system/stm32f1/src/stm32f1-stdperiph/stm32f10x_tim.o
 .text.TIM_SelectHallSensor
                0x0000000000000000       0x88 obj/Debug/system/stm32f1/src/stm32f1-stdperiph/stm32f10x_tim.o
 .text.TIM_SelectOnePulseMode
                0x0000000000000000       0xc8 obj/Debug/system/stm32f1/src/stm32f1-stdperiph/stm32f10x_tim.o
 .text.TIM_SelectOutputTrigger
                0x0000000000000000       0xac obj/Debug/system/stm32f1/src/stm32f1-stdperiph/stm32f10x_tim.o
 .text.TIM_SelectSlaveMode
                0x0000000000000000       0x88 obj/Debug/system/stm32f1/src/stm32f1-stdperiph/stm32f10x_tim.o
 .text.TIM_SelectMasterSlaveMode
                0x0000000000000000       0x88 obj/Debug/system/stm32f1/src/stm32f1-stdperiph/stm32f10x_tim.o
 .text.TIM_SetAutoreload
                0x0000000000000000       0xa0 obj/Debug/system/stm32f1/src/stm32f1-stdperiph/stm32f10x_tim.o
 .text.TIM_SetCompare1
                0x0000000000000000       0x90 obj/Debug/system/stm32f1/src/stm32f1-stdperiph/stm32f10x_tim.o
 .text.TIM_SetCompare2
                0x0000000000000000       0x60 obj/Debug/system/stm32f1/src/stm32f1-stdperiph/stm32f10x_tim.o
 .text.TIM_SetCompare3
                0x0000000000000000       0x48 obj/Debug/system/stm32f1/src/stm32f1-stdperiph/stm32f10x_tim.o
 .text.TIM_SetCompare4
                0x0000000000000000       0x4c obj/Debug/system/stm32f1/src/stm32f1-stdperiph/stm32f10x_tim.o
 .text.TIM_SetIC1Prescaler
                0x0000000000000000       0xbc obj/Debug/system/stm32f1/src/stm32f1-stdperiph/stm32f10x_tim.o
 .text.TIM_SetIC2Prescaler
                0x0000000000000000       0x90 obj/Debug/system/stm32f1/src/stm32f1-stdperiph/stm32f10x_tim.o
 .text.TIM_PWMIConfig
                0x0000000000000000       0xc4 obj/Debug/system/stm32f1/src/stm32f1-stdperiph/stm32f10x_tim.o
 .text.TIM_SetIC3Prescaler
                0x0000000000000000       0x74 obj/Debug/system/stm32f1/src/stm32f1-stdperiph/stm32f10x_tim.o
 .text.TIM_SetIC4Prescaler
                0x0000000000000000       0x78 obj/Debug/system/stm32f1/src/stm32f1-stdperiph/stm32f10x_tim.o
 .text.TIM_ICInit
                0x0000000000000000      0x264 obj/Debug/system/stm32f1/src/stm32f1-stdperiph/stm32f10x_tim.o
 .text.TIM_SetClockDivision
                0x0000000000000000       0xc0 obj/Debug/system/stm32f1/src/stm32f1-stdperiph/stm32f10x_tim.o
 .text.TIM_GetCapture1
                0x0000000000000000       0x90 obj/Debug/system/stm32f1/src/stm32f1-stdperiph/stm32f10x_tim.o
 .text.TIM_GetCapture2
                0x0000000000000000       0x60 obj/Debug/system/stm32f1/src/stm32f1-stdperiph/stm32f10x_tim.o
 .text.TIM_GetCapture3
                0x0000000000000000       0x48 obj/Debug/system/stm32f1/src/stm32f1-stdperiph/stm32f10x_tim.o
 .text.TIM_GetCapture4
                0x0000000000000000       0x4c obj/Debug/system/stm32f1/src/stm32f1-stdperiph/stm32f10x_tim.o
 .text.TIM_GetCounter
                0x0000000000000000       0xa0 obj/Debug/system/stm32f1/src/stm32f1-stdperiph/stm32f10x_tim.o
 .text.TIM_GetPrescaler
                0x0000000000000000       0xa0 obj/Debug/system/stm32f1/src/stm32f1-stdperiph/stm32f10x_tim.o
 .text.TIM_GetFlagStatus
                0x0000000000000000       0xf0 obj/Debug/system/stm32f1/src/stm32f1-stdperiph/stm32f10x_tim.o
 .text.TIM_ClearFlag
                0x0000000000000000       0xb8 obj/Debug/system/stm32f1/src/stm32f1-stdperiph/stm32f10x_tim.o
 .text          0x0000000000000000        0x0 obj/Debug/system/stm32f1/src/stm32f1-stdperiph/stm32f10x_usart.o
 .data          0x0000000000000000        0x0 obj/Debug/system/stm32f1/src/stm32f1-stdperiph/stm32f10x_usart.o
 .bss           0x0000000000000000        0x0 obj/Debug/system/stm32f1/src/stm32f1-stdperiph/stm32f10x_usart.o
 .text.USART_DeInit
                0x0000000000000000       0xd8 obj/Debug/system/stm32f1/src/stm32f1-stdperiph/stm32f10x_usart.o
 .text.USART_ClockInit
                0x0000000000000000       0xa8 obj/Debug/system/stm32f1/src/stm32f1-stdperiph/stm32f10x_usart.o
 .text.USART_ClockStructInit
                0x0000000000000000        0xc obj/Debug/system/stm32f1/src/stm32f1-stdperiph/stm32f10x_usart.o
 .text.USART_DMACmd
                0x0000000000000000       0x7c obj/Debug/system/stm32f1/src/stm32f1-stdperiph/stm32f10x_usart.o
 .text.USART_SetAddress
                0x0000000000000000       0x68 obj/Debug/system/stm32f1/src/stm32f1-stdperiph/stm32f10x_usart.o
 .text.USART_WakeUpConfig
                0x0000000000000000       0x6c obj/Debug/system/stm32f1/src/stm32f1-stdperiph/stm32f10x_usart.o
 .text.USART_ReceiverWakeUpCmd
                0x0000000000000000       0x6c obj/Debug/system/stm32f1/src/stm32f1-stdperiph/stm32f10x_usart.o
 .text.USART_LINBreakDetectLengthConfig
                0x0000000000000000       0x68 obj/Debug/system/stm32f1/src/stm32f1-stdperiph/stm32f10x_usart.o
 .text.USART_LINCmd
                0x0000000000000000       0x6c obj/Debug/system/stm32f1/src/stm32f1-stdperiph/stm32f10x_usart.o
 .text.USART_SendBreak
                0x0000000000000000       0x48 obj/Debug/system/stm32f1/src/stm32f1-stdperiph/stm32f10x_usart.o
 .text.USART_SetGuardTime
                0x0000000000000000       0x40 obj/Debug/system/stm32f1/src/stm32f1-stdperiph/stm32f10x_usart.o
 .text.USART_SetPrescaler
                0x0000000000000000       0x54 obj/Debug/system/stm32f1/src/stm32f1-stdperiph/stm32f10x_usart.o
 .text.USART_SmartCardCmd
                0x0000000000000000       0x5c obj/Debug/system/stm32f1/src/stm32f1-stdperiph/stm32f10x_usart.o
 .text.USART_SmartCardNACKCmd
                0x0000000000000000       0x5c obj/Debug/system/stm32f1/src/stm32f1-stdperiph/stm32f10x_usart.o
 .text.USART_HalfDuplexCmd
                0x0000000000000000       0x6c obj/Debug/system/stm32f1/src/stm32f1-stdperiph/stm32f10x_usart.o
 .text.USART_OverSampling8Cmd
                0x0000000000000000       0x6c obj/Debug/system/stm32f1/src/stm32f1-stdperiph/stm32f10x_usart.o
 .text.USART_OneBitMethodCmd
                0x0000000000000000       0x6c obj/Debug/system/stm32f1/src/stm32f1-stdperiph/stm32f10x_usart.o
 .text.USART_IrDAConfig
                0x0000000000000000       0x68 obj/Debug/system/stm32f1/src/stm32f1-stdperiph/stm32f10x_usart.o
 .text.USART_IrDACmd
                0x0000000000000000       0x6c obj/Debug/system/stm32f1/src/stm32f1-stdperiph/stm32f10x_usart.o
 .text.USART_ClearFlag
                0x0000000000000000       0x80 obj/Debug/system/stm32f1/src/stm32f1-stdperiph/stm32f10x_usart.o
 .text          0x0000000000000000      0x254 /opt/tools/bin/../lib/gcc/arm-none-eabi/10.3.1/thumb/v7-m/nofp/libgcc.a(_arm_muldf3.o)
 .data          0x0000000000000000        0x0 /opt/tools/bin/../lib/gcc/arm-none-eabi/10.3.1/thumb/v7-m/nofp/libgcc.a(_arm_muldf3.o)
 .bss           0x0000000000000000        0x0 /opt/tools/bin/../lib/gcc/arm-none-eabi/10.3.1/thumb/v7-m/nofp/libgcc.a(_arm_muldf3.o)
 .debug_line    0x0000000000000000      0x12f /opt/tools/bin/../lib/gcc/arm-none-eabi/10.3.1/thumb/v7-m/nofp/libgcc.a(_arm_muldf3.o)
 .debug_info    0x0000000000000000       0x26 /opt/tools/bin/../lib/gcc/arm-none-eabi/10.3.1/thumb/v7-m/nofp/libgcc.a(_arm_muldf3.o)
 .debug_abbrev  0x0000000000000000       0x14 /opt/tools/bin/../lib/gcc/arm-none-eabi/10.3.1/thumb/v7-m/nofp/libgcc.a(_arm_muldf3.o)
 .debug_aranges
                0x0000000000000000       0x20 /opt/tools/bin/../lib/gcc/arm-none-eabi/10.3.1/thumb/v7-m/nofp/libgcc.a(_arm_muldf3.o)
 .debug_str     0x0000000000000000       0xd1 /opt/tools/bin/../lib/gcc/arm-none-eabi/10.3.1/thumb/v7-m/nofp/libgcc.a(_arm_muldf3.o)
 .debug_frame   0x0000000000000000       0x30 /opt/tools/bin/../lib/gcc/arm-none-eabi/10.3.1/thumb/v7-m/nofp/libgcc.a(_arm_muldf3.o)
 .ARM.attributes
                0x0000000000000000       0x1d /opt/tools/bin/../lib/gcc/arm-none-eabi/10.3.1/thumb/v7-m/nofp/libgcc.a(_arm_muldf3.o)
 .text          0x0000000000000000      0x168 /opt/tools/bin/../lib/gcc/arm-none-eabi/10.3.1/thumb/v7-m/nofp/libgcc.a(_arm_mulsf3.o)
 .data          0x0000000000000000        0x0 /opt/tools/bin/../lib/gcc/arm-none-eabi/10.3.1/thumb/v7-m/nofp/libgcc.a(_arm_mulsf3.o)
 .bss           0x0000000000000000        0x0 /opt/tools/bin/../lib/gcc/arm-none-eabi/10.3.1/thumb/v7-m/nofp/libgcc.a(_arm_mulsf3.o)
 .debug_line    0x0000000000000000       0xf7 /opt/tools/bin/../lib/gcc/arm-none-eabi/10.3.1/thumb/v7-m/nofp/libgcc.a(_arm_mulsf3.o)
 .debug_info    0x0000000000000000       0x26 /opt/tools/bin/../lib/gcc/arm-none-eabi/10.3.1/thumb/v7-m/nofp/libgcc.a(_arm_mulsf3.o)
 .debug_abbrev  0x0000000000000000       0x14 /opt/tools/bin/../lib/gcc/arm-none-eabi/10.3.1/thumb/v7-m/nofp/libgcc.a(_arm_mulsf3.o)
 .debug_aranges
                0x0000000000000000       0x20 /opt/tools/bin/../lib/gcc/arm-none-eabi/10.3.1/thumb/v7-m/nofp/libgcc.a(_arm_mulsf3.o)
 .debug_str     0x0000000000000000       0xd1 /opt/tools/bin/../lib/gcc/arm-none-eabi/10.3.1/thumb/v7-m/nofp/libgcc.a(_arm_mulsf3.o)
 .debug_frame   0x0000000000000000       0x24 /opt/tools/bin/../lib/gcc/arm-none-eabi/10.3.1/thumb/v7-m/nofp/libgcc.a(_arm_mulsf3.o)
 .ARM.attributes
                0x0000000000000000       0x1d /opt/tools/bin/../lib/gcc/arm-none-eabi/10.3.1/thumb/v7-m/nofp/libgcc.a(_arm_mulsf3.o)
 .data          0x0000000000000000        0x0 /opt/tools/bin/../lib/gcc/arm-none-eabi/10.3.1/thumb/v7-m/nofp/libgcc.a(_arm_addsubdf3.o)
 .bss           0x0000000000000000        0x0 /opt/tools/bin/../lib/gcc/arm-none-eabi/10.3.1/thumb/v7-m/nofp/libgcc.a(_arm_addsubdf3.o)
 .data          0x0000000000000000        0x0 /opt/tools/bin/../lib/gcc/arm-none-eabi/10.3.1/thumb/v7-m/nofp/libgcc.a(_arm_muldivdf3.o)
 .bss           0x0000000000000000        0x0 /opt/tools/bin/../lib/gcc/arm-none-eabi/10.3.1/thumb/v7-m/nofp/libgcc.a(_arm_muldivdf3.o)
 .data          0x0000000000000000        0x0 /opt/tools/bin/../lib/gcc/arm-none-eabi/10.3.1/thumb/v7-m/nofp/libgcc.a(_arm_cmpdf2.o)
 .bss           0x0000000000000000        0x0 /opt/tools/bin/../lib/gcc/arm-none-eabi/10.3.1/thumb/v7-m/nofp/libgcc.a(_arm_cmpdf2.o)
 .data          0x0000000000000000        0x0 /opt/tools/bin/../lib/gcc/arm-none-eabi/10.3.1/thumb/v7-m/nofp/libgcc.a(_arm_unorddf2.o)
 .bss           0x0000000000000000        0x0 /opt/tools/bin/../lib/gcc/arm-none-eabi/10.3.1/thumb/v7-m/nofp/libgcc.a(_arm_unorddf2.o)
 .data          0x0000000000000000        0x0 /opt/tools/bin/../lib/gcc/arm-none-eabi/10.3.1/thumb/v7-m/nofp/libgcc.a(_arm_fixdfsi.o)
 .bss           0x0000000000000000        0x0 /opt/tools/bin/../lib/gcc/arm-none-eabi/10.3.1/thumb/v7-m/nofp/libgcc.a(_arm_fixdfsi.o)
 .data          0x0000000000000000        0x0 /opt/tools/bin/../lib/gcc/arm-none-eabi/10.3.1/thumb/v7-m/nofp/libgcc.a(_arm_fixunsdfsi.o)
 .bss           0x0000000000000000        0x0 /opt/tools/bin/../lib/gcc/arm-none-eabi/10.3.1/thumb/v7-m/nofp/libgcc.a(_arm_fixunsdfsi.o)
 .text          0x0000000000000000       0xa0 /opt/tools/bin/../lib/gcc/arm-none-eabi/10.3.1/thumb/v7-m/nofp/libgcc.a(_arm_truncdfsf2.o)
 .data          0x0000000000000000        0x0 /opt/tools/bin/../lib/gcc/arm-none-eabi/10.3.1/thumb/v7-m/nofp/libgcc.a(_arm_truncdfsf2.o)
 .bss           0x0000000000000000        0x0 /opt/tools/bin/../lib/gcc/arm-none-eabi/10.3.1/thumb/v7-m/nofp/libgcc.a(_arm_truncdfsf2.o)
 .debug_line    0x0000000000000000       0xb0 /opt/tools/bin/../lib/gcc/arm-none-eabi/10.3.1/thumb/v7-m/nofp/libgcc.a(_arm_truncdfsf2.o)
 .debug_info    0x0000000000000000       0x26 /opt/tools/bin/../lib/gcc/arm-none-eabi/10.3.1/thumb/v7-m/nofp/libgcc.a(_arm_truncdfsf2.o)
 .debug_abbrev  0x0000000000000000       0x14 /opt/tools/bin/../lib/gcc/arm-none-eabi/10.3.1/thumb/v7-m/nofp/libgcc.a(_arm_truncdfsf2.o)
 .debug_aranges
                0x0000000000000000       0x20 /opt/tools/bin/../lib/gcc/arm-none-eabi/10.3.1/thumb/v7-m/nofp/libgcc.a(_arm_truncdfsf2.o)
 .debug_str     0x0000000000000000       0xd1 /opt/tools/bin/../lib/gcc/arm-none-eabi/10.3.1/thumb/v7-m/nofp/libgcc.a(_arm_truncdfsf2.o)
 .debug_frame   0x0000000000000000       0x24 /opt/tools/bin/../lib/gcc/arm-none-eabi/10.3.1/thumb/v7-m/nofp/libgcc.a(_arm_truncdfsf2.o)
 .ARM.attributes
                0x0000000000000000       0x1d /opt/tools/bin/../lib/gcc/arm-none-eabi/10.3.1/thumb/v7-m/nofp/libgcc.a(_arm_truncdfsf2.o)
 .data          0x0000000000000000        0x0 /opt/tools/bin/../lib/gcc/arm-none-eabi/10.3.1/thumb/v7-m/nofp/libgcc.a(_arm_addsubsf3.o)
 .bss           0x0000000000000000        0x0 /opt/tools/bin/../lib/gcc/arm-none-eabi/10.3.1/thumb/v7-m/nofp/libgcc.a(_arm_addsubsf3.o)
 .data          0x0000000000000000        0x0 /opt/tools/bin/../lib/gcc/arm-none-eabi/10.3.1/thumb/v7-m/nofp/libgcc.a(_arm_muldivsf3.o)
 .bss           0x0000000000000000        0x0 /opt/tools/bin/../lib/gcc/arm-none-eabi/10.3.1/thumb/v7-m/nofp/libgcc.a(_arm_muldivsf3.o)
 .data          0x0000000000000000        0x0 /opt/tools/bin/../lib/gcc/arm-none-eabi/10.3.1/thumb/v7-m/nofp/libgcc.a(_arm_cmpsf2.o)
 .bss           0x0000000000000000        0x0 /opt/tools/bin/../lib/gcc/arm-none-eabi/10.3.1/thumb/v7-m/nofp/libgcc.a(_arm_cmpsf2.o)
 .text          0x0000000000000000       0x4c /opt/tools/bin/../lib/gcc/arm-none-eabi/10.3.1/thumb/v7-m/nofp/libgcc.a(_arm_fixsfsi.o)
 .data          0x0000000000000000        0x0 /opt/tools/bin/../lib/gcc/arm-none-eabi/10.3.1/thumb/v7-m/nofp/libgcc.a(_arm_fixsfsi.o)
 .bss           0x0000000000000000        0x0 /opt/tools/bin/../lib/gcc/arm-none-eabi/10.3.1/thumb/v7-m/nofp/libgcc.a(_arm_fixsfsi.o)
 .debug_line    0x0000000000000000       0x9c /opt/tools/bin/../lib/gcc/arm-none-eabi/10.3.1/thumb/v7-m/nofp/libgcc.a(_arm_fixsfsi.o)
 .debug_info    0x0000000000000000       0x26 /opt/tools/bin/../lib/gcc/arm-none-eabi/10.3.1/thumb/v7-m/nofp/libgcc.a(_arm_fixsfsi.o)
 .debug_abbrev  0x0000000000000000       0x14 /opt/tools/bin/../lib/gcc/arm-none-eabi/10.3.1/thumb/v7-m/nofp/libgcc.a(_arm_fixsfsi.o)
 .debug_aranges
                0x0000000000000000       0x20 /opt/tools/bin/../lib/gcc/arm-none-eabi/10.3.1/thumb/v7-m/nofp/libgcc.a(_arm_fixsfsi.o)
 .debug_str     0x0000000000000000       0xd1 /opt/tools/bin/../lib/gcc/arm-none-eabi/10.3.1/thumb/v7-m/nofp/libgcc.a(_arm_fixsfsi.o)
 .debug_frame   0x0000000000000000       0x24 /opt/tools/bin/../lib/gcc/arm-none-eabi/10.3.1/thumb/v7-m/nofp/libgcc.a(_arm_fixsfsi.o)
 .ARM.attributes
                0x0000000000000000       0x1d /opt/tools/bin/../lib/gcc/arm-none-eabi/10.3.1/thumb/v7-m/nofp/libgcc.a(_arm_fixsfsi.o)
 .data          0x0000000000000000        0x0 /opt/tools/bin/../lib/gcc/arm-none-eabi/10.3.1/thumb/v7-m/nofp/libgcc.a(_arm_fixunssfsi.o)
 .bss           0x0000000000000000        0x0 /opt/tools/bin/../lib/gcc/arm-none-eabi/10.3.1/thumb/v7-m/nofp/libgcc.a(_arm_fixunssfsi.o)
 .data          0x0000000000000000        0x0 /opt/tools/bin/../lib/gcc/arm-none-eabi/10.3.1/thumb/v7-m/nofp/libgcc.a(_aeabi_uldivmod.o)
 .bss           0x0000000000000000        0x0 /opt/tools/bin/../lib/gcc/arm-none-eabi/10.3.1/thumb/v7-m/nofp/libgcc.a(_aeabi_uldivmod.o)
 .text          0x0000000000000000        0x0 /opt/tools/bin/../lib/gcc/arm-none-eabi/10.3.1/thumb/v7-m/nofp/libgcc.a(_fixsfdi.o)
 .data          0x0000000000000000        0x0 /opt/tools/bin/../lib/gcc/arm-none-eabi/10.3.1/thumb/v7-m/nofp/libgcc.a(_fixsfdi.o)
 .bss           0x0000000000000000        0x0 /opt/tools/bin/../lib/gcc/arm-none-eabi/10.3.1/thumb/v7-m/nofp/libgcc.a(_fixsfdi.o)
 .text.__fixsfdi
                0x0000000000000000       0x28 /opt/tools/bin/../lib/gcc/arm-none-eabi/10.3.1/thumb/v7-m/nofp/libgcc.a(_fixsfdi.o)
 .debug_info    0x0000000000000000      0x311 /opt/tools/bin/../lib/gcc/arm-none-eabi/10.3.1/thumb/v7-m/nofp/libgcc.a(_fixsfdi.o)
 .debug_abbrev  0x0000000000000000      0x11c /opt/tools/bin/../lib/gcc/arm-none-eabi/10.3.1/thumb/v7-m/nofp/libgcc.a(_fixsfdi.o)
 .debug_loc     0x0000000000000000       0x4e /opt/tools/bin/../lib/gcc/arm-none-eabi/10.3.1/thumb/v7-m/nofp/libgcc.a(_fixsfdi.o)
 .debug_aranges
                0x0000000000000000       0x20 /opt/tools/bin/../lib/gcc/arm-none-eabi/10.3.1/thumb/v7-m/nofp/libgcc.a(_fixsfdi.o)
 .debug_ranges  0x0000000000000000       0x10 /opt/tools/bin/../lib/gcc/arm-none-eabi/10.3.1/thumb/v7-m/nofp/libgcc.a(_fixsfdi.o)
 .debug_line    0x0000000000000000       0xd3 /opt/tools/bin/../lib/gcc/arm-none-eabi/10.3.1/thumb/v7-m/nofp/libgcc.a(_fixsfdi.o)
 .debug_str     0x0000000000000000      0x652 /opt/tools/bin/../lib/gcc/arm-none-eabi/10.3.1/thumb/v7-m/nofp/libgcc.a(_fixsfdi.o)
 .comment       0x0000000000000000       0x5e /opt/tools/bin/../lib/gcc/arm-none-eabi/10.3.1/thumb/v7-m/nofp/libgcc.a(_fixsfdi.o)
 .debug_frame   0x0000000000000000       0x30 /opt/tools/bin/../lib/gcc/arm-none-eabi/10.3.1/thumb/v7-m/nofp/libgcc.a(_fixsfdi.o)
 .ARM.attributes
                0x0000000000000000       0x2d /opt/tools/bin/../lib/gcc/arm-none-eabi/10.3.1/thumb/v7-m/nofp/libgcc.a(_fixsfdi.o)
 .text          0x0000000000000000        0x0 /opt/tools/bin/../lib/gcc/arm-none-eabi/10.3.1/thumb/v7-m/nofp/libgcc.a(_fixdfdi.o)
 .data          0x0000000000000000        0x0 /opt/tools/bin/../lib/gcc/arm-none-eabi/10.3.1/thumb/v7-m/nofp/libgcc.a(_fixdfdi.o)
 .bss           0x0000000000000000        0x0 /opt/tools/bin/../lib/gcc/arm-none-eabi/10.3.1/thumb/v7-m/nofp/libgcc.a(_fixdfdi.o)
 .text.__fixdfdi
                0x0000000000000000       0x34 /opt/tools/bin/../lib/gcc/arm-none-eabi/10.3.1/thumb/v7-m/nofp/libgcc.a(_fixdfdi.o)
 .debug_info    0x0000000000000000      0x303 /opt/tools/bin/../lib/gcc/arm-none-eabi/10.3.1/thumb/v7-m/nofp/libgcc.a(_fixdfdi.o)
 .debug_abbrev  0x0000000000000000      0x10e /opt/tools/bin/../lib/gcc/arm-none-eabi/10.3.1/thumb/v7-m/nofp/libgcc.a(_fixdfdi.o)
 .debug_loc     0x0000000000000000       0x2c /opt/tools/bin/../lib/gcc/arm-none-eabi/10.3.1/thumb/v7-m/nofp/libgcc.a(_fixdfdi.o)
 .debug_aranges
                0x0000000000000000       0x20 /opt/tools/bin/../lib/gcc/arm-none-eabi/10.3.1/thumb/v7-m/nofp/libgcc.a(_fixdfdi.o)
 .debug_ranges  0x0000000000000000       0x10 /opt/tools/bin/../lib/gcc/arm-none-eabi/10.3.1/thumb/v7-m/nofp/libgcc.a(_fixdfdi.o)
 .debug_line    0x0000000000000000       0xcf /opt/tools/bin/../lib/gcc/arm-none-eabi/10.3.1/thumb/v7-m/nofp/libgcc.a(_fixdfdi.o)
 .debug_str     0x0000000000000000      0x652 /opt/tools/bin/../lib/gcc/arm-none-eabi/10.3.1/thumb/v7-m/nofp/libgcc.a(_fixdfdi.o)
 .comment       0x0000000000000000       0x5e /opt/tools/bin/../lib/gcc/arm-none-eabi/10.3.1/thumb/v7-m/nofp/libgcc.a(_fixdfdi.o)
 .debug_frame   0x0000000000000000       0x38 /opt/tools/bin/../lib/gcc/arm-none-eabi/10.3.1/thumb/v7-m/nofp/libgcc.a(_fixdfdi.o)
 .ARM.attributes
                0x0000000000000000       0x2d /opt/tools/bin/../lib/gcc/arm-none-eabi/10.3.1/thumb/v7-m/nofp/libgcc.a(_fixdfdi.o)
 .text          0x0000000000000000        0x0 /opt/tools/bin/../lib/gcc/arm-none-eabi/10.3.1/thumb/v7-m/nofp/libgcc.a(_fixunssfdi.o)
 .data          0x0000000000000000        0x0 /opt/tools/bin/../lib/gcc/arm-none-eabi/10.3.1/thumb/v7-m/nofp/libgcc.a(_fixunssfdi.o)
 .bss           0x0000000000000000        0x0 /opt/tools/bin/../lib/gcc/arm-none-eabi/10.3.1/thumb/v7-m/nofp/libgcc.a(_fixunssfdi.o)
 .text          0x0000000000000000        0x0 /opt/tools/bin/../lib/gcc/arm-none-eabi/10.3.1/thumb/v7-m/nofp/libgcc.a(_fixunsdfdi.o)
 .data          0x0000000000000000        0x0 /opt/tools/bin/../lib/gcc/arm-none-eabi/10.3.1/thumb/v7-m/nofp/libgcc.a(_fixunsdfdi.o)
 .bss           0x0000000000000000        0x0 /opt/tools/bin/../lib/gcc/arm-none-eabi/10.3.1/thumb/v7-m/nofp/libgcc.a(_fixunsdfdi.o)
 .text.__fixunsdfdi
                0x0000000000000000       0x3c /opt/tools/bin/../lib/gcc/arm-none-eabi/10.3.1/thumb/v7-m/nofp/libgcc.a(_fixunsdfdi.o)
 .debug_info    0x0000000000000000      0x366 /opt/tools/bin/../lib/gcc/arm-none-eabi/10.3.1/thumb/v7-m/nofp/libgcc.a(_fixunsdfdi.o)
 .debug_abbrev  0x0000000000000000      0x101 /opt/tools/bin/../lib/gcc/arm-none-eabi/10.3.1/thumb/v7-m/nofp/libgcc.a(_fixunsdfdi.o)
 .debug_loc     0x0000000000000000       0xad /opt/tools/bin/../lib/gcc/arm-none-eabi/10.3.1/thumb/v7-m/nofp/libgcc.a(_fixunsdfdi.o)
 .debug_aranges
                0x0000000000000000       0x20 /opt/tools/bin/../lib/gcc/arm-none-eabi/10.3.1/thumb/v7-m/nofp/libgcc.a(_fixunsdfdi.o)
 .debug_ranges  0x0000000000000000       0x10 /opt/tools/bin/../lib/gcc/arm-none-eabi/10.3.1/thumb/v7-m/nofp/libgcc.a(_fixunsdfdi.o)
 .debug_line    0x0000000000000000       0xd0 /opt/tools/bin/../lib/gcc/arm-none-eabi/10.3.1/thumb/v7-m/nofp/libgcc.a(_fixunsdfdi.o)
 .debug_str     0x0000000000000000      0x669 /opt/tools/bin/../lib/gcc/arm-none-eabi/10.3.1/thumb/v7-m/nofp/libgcc.a(_fixunsdfdi.o)
 .comment       0x0000000000000000       0x5e /opt/tools/bin/../lib/gcc/arm-none-eabi/10.3.1/thumb/v7-m/nofp/libgcc.a(_fixunsdfdi.o)
 .debug_frame   0x0000000000000000       0x2c /opt/tools/bin/../lib/gcc/arm-none-eabi/10.3.1/thumb/v7-m/nofp/libgcc.a(_fixunsdfdi.o)
 .ARM.attributes
                0x0000000000000000       0x2d /opt/tools/bin/../lib/gcc/arm-none-eabi/10.3.1/thumb/v7-m/nofp/libgcc.a(_fixunsdfdi.o)
 .text          0x0000000000000000        0x0 /opt/tools/bin/../lib/gcc/arm-none-eabi/10.3.1/thumb/v7-m/nofp/libgcc.a(_udivmoddi4.o)
 .data          0x0000000000000000        0x0 /opt/tools/bin/../lib/gcc/arm-none-eabi/10.3.1/thumb/v7-m/nofp/libgcc.a(_udivmoddi4.o)
 .bss           0x0000000000000000        0x0 /opt/tools/bin/../lib/gcc/arm-none-eabi/10.3.1/thumb/v7-m/nofp/libgcc.a(_udivmoddi4.o)
 .ARM.extab.text.__udivmoddi4
                0x0000000000000000        0x0 /opt/tools/bin/../lib/gcc/arm-none-eabi/10.3.1/thumb/v7-m/nofp/libgcc.a(_udivmoddi4.o)
 .text          0x0000000000000000        0x0 /opt/tools/bin/../lib/gcc/arm-none-eabi/10.3.1/thumb/v7-m/nofp/libgcc.a(unwind-arm.o)
 .data          0x0000000000000000        0x0 /opt/tools/bin/../lib/gcc/arm-none-eabi/10.3.1/thumb/v7-m/nofp/libgcc.a(unwind-arm.o)
 .bss           0x0000000000000000        0x0 /opt/tools/bin/../lib/gcc/arm-none-eabi/10.3.1/thumb/v7-m/nofp/libgcc.a(unwind-arm.o)
 .text.selfrel_offset31
                0x0000000000000000       0x14 /opt/tools/bin/../lib/gcc/arm-none-eabi/10.3.1/thumb/v7-m/nofp/libgcc.a(unwind-arm.o)
 .ARM.extab.text.selfrel_offset31
                0x0000000000000000        0x0 /opt/tools/bin/../lib/gcc/arm-none-eabi/10.3.1/thumb/v7-m/nofp/libgcc.a(unwind-arm.o)
 .ARM.exidx.text.selfrel_offset31
                0x0000000000000000        0x8 /opt/tools/bin/../lib/gcc/arm-none-eabi/10.3.1/thumb/v7-m/nofp/libgcc.a(unwind-arm.o)
 .text.search_EIT_table
                0x0000000000000000       0x60 /opt/tools/bin/../lib/gcc/arm-none-eabi/10.3.1/thumb/v7-m/nofp/libgcc.a(unwind-arm.o)
 .ARM.extab.text.search_EIT_table
                0x0000000000000000        0x0 /opt/tools/bin/../lib/gcc/arm-none-eabi/10.3.1/thumb/v7-m/nofp/libgcc.a(unwind-arm.o)
 .ARM.exidx.text.search_EIT_table
                0x0000000000000000        0x8 /opt/tools/bin/../lib/gcc/arm-none-eabi/10.3.1/thumb/v7-m/nofp/libgcc.a(unwind-arm.o)
 .text.__gnu_unwind_get_pr_addr
                0x0000000000000000       0x28 /opt/tools/bin/../lib/gcc/arm-none-eabi/10.3.1/thumb/v7-m/nofp/libgcc.a(unwind-arm.o)
 .ARM.extab.text.__gnu_unwind_get_pr_addr
                0x0000000000000000        0x0 /opt/tools/bin/../lib/gcc/arm-none-eabi/10.3.1/thumb/v7-m/nofp/libgcc.a(unwind-arm.o)
 .ARM.exidx.text.__gnu_unwind_get_pr_addr
                0x0000000000000000        0x8 /opt/tools/bin/../lib/gcc/arm-none-eabi/10.3.1/thumb/v7-m/nofp/libgcc.a(unwind-arm.o)
 .text.get_eit_entry
                0x0000000000000000       0xa0 /opt/tools/bin/../lib/gcc/arm-none-eabi/10.3.1/thumb/v7-m/nofp/libgcc.a(unwind-arm.o)
 .ARM.extab.text.get_eit_entry
                0x0000000000000000        0x0 /opt/tools/bin/../lib/gcc/arm-none-eabi/10.3.1/thumb/v7-m/nofp/libgcc.a(unwind-arm.o)
 .ARM.exidx.text.get_eit_entry
                0x0000000000000000        0x8 /opt/tools/bin/../lib/gcc/arm-none-eabi/10.3.1/thumb/v7-m/nofp/libgcc.a(unwind-arm.o)
 .text.restore_non_core_regs
                0x0000000000000000       0x58 /opt/tools/bin/../lib/gcc/arm-none-eabi/10.3.1/thumb/v7-m/nofp/libgcc.a(unwind-arm.o)
 .ARM.extab.text.restore_non_core_regs
                0x0000000000000000        0x0 /opt/tools/bin/../lib/gcc/arm-none-eabi/10.3.1/thumb/v7-m/nofp/libgcc.a(unwind-arm.o)
 .ARM.exidx.text.restore_non_core_regs
                0x0000000000000000        0x8 /opt/tools/bin/../lib/gcc/arm-none-eabi/10.3.1/thumb/v7-m/nofp/libgcc.a(unwind-arm.o)
 .text.__gnu_unwind_24bit.constprop.0
                0x0000000000000000        0x4 /opt/tools/bin/../lib/gcc/arm-none-eabi/10.3.1/thumb/v7-m/nofp/libgcc.a(unwind-arm.o)
 .ARM.extab.text.__gnu_unwind_24bit.constprop.0
                0x0000000000000000        0x0 /opt/tools/bin/../lib/gcc/arm-none-eabi/10.3.1/thumb/v7-m/nofp/libgcc.a(unwind-arm.o)
 .ARM.exidx.text.__gnu_unwind_24bit.constprop.0
                0x0000000000000000        0x8 /opt/tools/bin/../lib/gcc/arm-none-eabi/10.3.1/thumb/v7-m/nofp/libgcc.a(unwind-arm.o)
 .text._Unwind_decode_typeinfo_ptr.constprop.0
                0x0000000000000000        0xc /opt/tools/bin/../lib/gcc/arm-none-eabi/10.3.1/thumb/v7-m/nofp/libgcc.a(unwind-arm.o)
 .ARM.extab.text._Unwind_decode_typeinfo_ptr.constprop.0
                0x0000000000000000        0x0 /opt/tools/bin/../lib/gcc/arm-none-eabi/10.3.1/thumb/v7-m/nofp/libgcc.a(unwind-arm.o)
 .ARM.exidx.text._Unwind_decode_typeinfo_ptr.constprop.0
                0x0000000000000000        0x8 /opt/tools/bin/../lib/gcc/arm-none-eabi/10.3.1/thumb/v7-m/nofp/libgcc.a(unwind-arm.o)
 .text._Unwind_DebugHook
                0x0000000000000000        0x4 /opt/tools/bin/../lib/gcc/arm-none-eabi/10.3.1/thumb/v7-m/nofp/libgcc.a(unwind-arm.o)
 .ARM.extab.text._Unwind_DebugHook
                0x0000000000000000        0x0 /opt/tools/bin/../lib/gcc/arm-none-eabi/10.3.1/thumb/v7-m/nofp/libgcc.a(unwind-arm.o)
 .ARM.exidx.text._Unwind_DebugHook
                0x0000000000000000        0x8 /opt/tools/bin/../lib/gcc/arm-none-eabi/10.3.1/thumb/v7-m/nofp/libgcc.a(unwind-arm.o)
 .text.unwind_phase2
                0x0000000000000000       0x40 /opt/tools/bin/../lib/gcc/arm-none-eabi/10.3.1/thumb/v7-m/nofp/libgcc.a(unwind-arm.o)
 .ARM.extab.text.unwind_phase2
                0x0000000000000000        0x0 /opt/tools/bin/../lib/gcc/arm-none-eabi/10.3.1/thumb/v7-m/nofp/libgcc.a(unwind-arm.o)
 .ARM.exidx.text.unwind_phase2
                0x0000000000000000        0x8 /opt/tools/bin/../lib/gcc/arm-none-eabi/10.3.1/thumb/v7-m/nofp/libgcc.a(unwind-arm.o)
 .text.unwind_phase2_forced
                0x0000000000000000       0xd8 /opt/tools/bin/../lib/gcc/arm-none-eabi/10.3.1/thumb/v7-m/nofp/libgcc.a(unwind-arm.o)
 .ARM.extab.text.unwind_phase2_forced
                0x0000000000000000        0x0 /opt/tools/bin/../lib/gcc/arm-none-eabi/10.3.1/thumb/v7-m/nofp/libgcc.a(unwind-arm.o)
 .ARM.exidx.text.unwind_phase2_forced
                0x0000000000000000        0x8 /opt/tools/bin/../lib/gcc/arm-none-eabi/10.3.1/thumb/v7-m/nofp/libgcc.a(unwind-arm.o)
 .text._Unwind_GetCFA
                0x0000000000000000        0x4 /opt/tools/bin/../lib/gcc/arm-none-eabi/10.3.1/thumb/v7-m/nofp/libgcc.a(unwind-arm.o)
 .ARM.extab.text._Unwind_GetCFA
                0x0000000000000000        0x0 /opt/tools/bin/../lib/gcc/arm-none-eabi/10.3.1/thumb/v7-m/nofp/libgcc.a(unwind-arm.o)
 .ARM.exidx.text._Unwind_GetCFA
                0x0000000000000000        0x8 /opt/tools/bin/../lib/gcc/arm-none-eabi/10.3.1/thumb/v7-m/nofp/libgcc.a(unwind-arm.o)
 .text.__gnu_Unwind_RaiseException
                0x0000000000000000       0x68 /opt/tools/bin/../lib/gcc/arm-none-eabi/10.3.1/thumb/v7-m/nofp/libgcc.a(unwind-arm.o)
 .ARM.extab.text.__gnu_Unwind_RaiseException
                0x0000000000000000        0x0 /opt/tools/bin/../lib/gcc/arm-none-eabi/10.3.1/thumb/v7-m/nofp/libgcc.a(unwind-arm.o)
 .ARM.exidx.text.__gnu_Unwind_RaiseException
                0x0000000000000000        0x8 /opt/tools/bin/../lib/gcc/arm-none-eabi/10.3.1/thumb/v7-m/nofp/libgcc.a(unwind-arm.o)
 .text.__gnu_Unwind_ForcedUnwind
                0x0000000000000000       0x18 /opt/tools/bin/../lib/gcc/arm-none-eabi/10.3.1/thumb/v7-m/nofp/libgcc.a(unwind-arm.o)
 .ARM.extab.text.__gnu_Unwind_ForcedUnwind
                0x0000000000000000        0x0 /opt/tools/bin/../lib/gcc/arm-none-eabi/10.3.1/thumb/v7-m/nofp/libgcc.a(unwind-arm.o)
 .ARM.exidx.text.__gnu_Unwind_ForcedUnwind
                0x0000000000000000        0x8 /opt/tools/bin/../lib/gcc/arm-none-eabi/10.3.1/thumb/v7-m/nofp/libgcc.a(unwind-arm.o)
 .text.__gnu_Unwind_Resume
                0x0000000000000000       0x44 /opt/tools/bin/../lib/gcc/arm-none-eabi/10.3.1/thumb/v7-m/nofp/libgcc.a(unwind-arm.o)
 .ARM.extab.text.__gnu_Unwind_Resume
                0x0000000000000000        0x0 /opt/tools/bin/../lib/gcc/arm-none-eabi/10.3.1/thumb/v7-m/nofp/libgcc.a(unwind-arm.o)
 .ARM.exidx.text.__gnu_Unwind_Resume
                0x0000000000000000        0x8 /opt/tools/bin/../lib/gcc/arm-none-eabi/10.3.1/thumb/v7-m/nofp/libgcc.a(unwind-arm.o)
 .text.__gnu_Unwind_Resume_or_Rethrow
                0x0000000000000000       0x18 /opt/tools/bin/../lib/gcc/arm-none-eabi/10.3.1/thumb/v7-m/nofp/libgcc.a(unwind-arm.o)
 .ARM.extab.text.__gnu_Unwind_Resume_or_Rethrow
                0x0000000000000000        0x0 /opt/tools/bin/../lib/gcc/arm-none-eabi/10.3.1/thumb/v7-m/nofp/libgcc.a(unwind-arm.o)
 .ARM.exidx.text.__gnu_Unwind_Resume_or_Rethrow
                0x0000000000000000        0x8 /opt/tools/bin/../lib/gcc/arm-none-eabi/10.3.1/thumb/v7-m/nofp/libgcc.a(unwind-arm.o)
 .text._Unwind_Complete
                0x0000000000000000        0x4 /opt/tools/bin/../lib/gcc/arm-none-eabi/10.3.1/thumb/v7-m/nofp/libgcc.a(unwind-arm.o)
 .ARM.extab.text._Unwind_Complete
                0x0000000000000000        0x0 /opt/tools/bin/../lib/gcc/arm-none-eabi/10.3.1/thumb/v7-m/nofp/libgcc.a(unwind-arm.o)
 .ARM.exidx.text._Unwind_Complete
                0x0000000000000000        0x8 /opt/tools/bin/../lib/gcc/arm-none-eabi/10.3.1/thumb/v7-m/nofp/libgcc.a(unwind-arm.o)
 .text._Unwind_DeleteException
                0x0000000000000000        0xc /opt/tools/bin/../lib/gcc/arm-none-eabi/10.3.1/thumb/v7-m/nofp/libgcc.a(unwind-arm.o)
 .ARM.extab.text._Unwind_DeleteException
                0x0000000000000000        0x0 /opt/tools/bin/../lib/gcc/arm-none-eabi/10.3.1/thumb/v7-m/nofp/libgcc.a(unwind-arm.o)
 .ARM.exidx.text._Unwind_DeleteException
                0x0000000000000000        0x8 /opt/tools/bin/../lib/gcc/arm-none-eabi/10.3.1/thumb/v7-m/nofp/libgcc.a(unwind-arm.o)
 .text._Unwind_VRS_Get
                0x0000000000000000       0x30 /opt/tools/bin/../lib/gcc/arm-none-eabi/10.3.1/thumb/v7-m/nofp/libgcc.a(unwind-arm.o)
 .ARM.extab.text._Unwind_VRS_Get
                0x0000000000000000        0x0 /opt/tools/bin/../lib/gcc/arm-none-eabi/10.3.1/thumb/v7-m/nofp/libgcc.a(unwind-arm.o)
 .ARM.exidx.text._Unwind_VRS_Get
                0x0000000000000000        0x8 /opt/tools/bin/../lib/gcc/arm-none-eabi/10.3.1/thumb/v7-m/nofp/libgcc.a(unwind-arm.o)
 .text._Unwind_GetGR
                0x0000000000000000       0x1c /opt/tools/bin/../lib/gcc/arm-none-eabi/10.3.1/thumb/v7-m/nofp/libgcc.a(unwind-arm.o)
 .ARM.extab.text._Unwind_GetGR
                0x0000000000000000        0x0 /opt/tools/bin/../lib/gcc/arm-none-eabi/10.3.1/thumb/v7-m/nofp/libgcc.a(unwind-arm.o)
 .ARM.exidx.text._Unwind_GetGR
                0x0000000000000000        0x8 /opt/tools/bin/../lib/gcc/arm-none-eabi/10.3.1/thumb/v7-m/nofp/libgcc.a(unwind-arm.o)
 .text._Unwind_VRS_Set
                0x0000000000000000       0x30 /opt/tools/bin/../lib/gcc/arm-none-eabi/10.3.1/thumb/v7-m/nofp/libgcc.a(unwind-arm.o)
 .ARM.extab.text._Unwind_VRS_Set
                0x0000000000000000        0x0 /opt/tools/bin/../lib/gcc/arm-none-eabi/10.3.1/thumb/v7-m/nofp/libgcc.a(unwind-arm.o)
 .ARM.exidx.text._Unwind_VRS_Set
                0x0000000000000000        0x8 /opt/tools/bin/../lib/gcc/arm-none-eabi/10.3.1/thumb/v7-m/nofp/libgcc.a(unwind-arm.o)
 .text._Unwind_SetGR
                0x0000000000000000       0x18 /opt/tools/bin/../lib/gcc/arm-none-eabi/10.3.1/thumb/v7-m/nofp/libgcc.a(unwind-arm.o)
 .ARM.extab.text._Unwind_SetGR
                0x0000000000000000        0x0 /opt/tools/bin/../lib/gcc/arm-none-eabi/10.3.1/thumb/v7-m/nofp/libgcc.a(unwind-arm.o)
 .ARM.exidx.text._Unwind_SetGR
                0x0000000000000000        0x8 /opt/tools/bin/../lib/gcc/arm-none-eabi/10.3.1/thumb/v7-m/nofp/libgcc.a(unwind-arm.o)
 .text.__gnu_Unwind_Backtrace
                0x0000000000000000       0x80 /opt/tools/bin/../lib/gcc/arm-none-eabi/10.3.1/thumb/v7-m/nofp/libgcc.a(unwind-arm.o)
 .ARM.extab.text.__gnu_Unwind_Backtrace
                0x0000000000000000        0x0 /opt/tools/bin/../lib/gcc/arm-none-eabi/10.3.1/thumb/v7-m/nofp/libgcc.a(unwind-arm.o)
 .ARM.exidx.text.__gnu_Unwind_Backtrace
                0x0000000000000000        0x8 /opt/tools/bin/../lib/gcc/arm-none-eabi/10.3.1/thumb/v7-m/nofp/libgcc.a(unwind-arm.o)
 .text.__gnu_unwind_pr_common
                0x0000000000000000      0x2a8 /opt/tools/bin/../lib/gcc/arm-none-eabi/10.3.1/thumb/v7-m/nofp/libgcc.a(unwind-arm.o)
 .ARM.extab.text.__gnu_unwind_pr_common
                0x0000000000000000        0x0 /opt/tools/bin/../lib/gcc/arm-none-eabi/10.3.1/thumb/v7-m/nofp/libgcc.a(unwind-arm.o)
 .ARM.exidx.text.__gnu_unwind_pr_common
                0x0000000000000000        0x8 /opt/tools/bin/../lib/gcc/arm-none-eabi/10.3.1/thumb/v7-m/nofp/libgcc.a(unwind-arm.o)
 .text.__aeabi_unwind_cpp_pr0
                0x0000000000000000        0x8 /opt/tools/bin/../lib/gcc/arm-none-eabi/10.3.1/thumb/v7-m/nofp/libgcc.a(unwind-arm.o)
 .ARM.extab.text.__aeabi_unwind_cpp_pr0
                0x0000000000000000        0x0 /opt/tools/bin/../lib/gcc/arm-none-eabi/10.3.1/thumb/v7-m/nofp/libgcc.a(unwind-arm.o)
 .ARM.exidx.text.__aeabi_unwind_cpp_pr0
                0x0000000000000000        0x8 /opt/tools/bin/../lib/gcc/arm-none-eabi/10.3.1/thumb/v7-m/nofp/libgcc.a(unwind-arm.o)
 .text.__aeabi_unwind_cpp_pr1
                0x0000000000000000        0x8 /opt/tools/bin/../lib/gcc/arm-none-eabi/10.3.1/thumb/v7-m/nofp/libgcc.a(unwind-arm.o)
 .ARM.extab.text.__aeabi_unwind_cpp_pr1
                0x0000000000000000        0x0 /opt/tools/bin/../lib/gcc/arm-none-eabi/10.3.1/thumb/v7-m/nofp/libgcc.a(unwind-arm.o)
 .ARM.exidx.text.__aeabi_unwind_cpp_pr1
                0x0000000000000000        0x8 /opt/tools/bin/../lib/gcc/arm-none-eabi/10.3.1/thumb/v7-m/nofp/libgcc.a(unwind-arm.o)
 .text.__aeabi_unwind_cpp_pr2
                0x0000000000000000        0x8 /opt/tools/bin/../lib/gcc/arm-none-eabi/10.3.1/thumb/v7-m/nofp/libgcc.a(unwind-arm.o)
 .ARM.extab.text.__aeabi_unwind_cpp_pr2
                0x0000000000000000        0x0 /opt/tools/bin/../lib/gcc/arm-none-eabi/10.3.1/thumb/v7-m/nofp/libgcc.a(unwind-arm.o)
 .ARM.exidx.text.__aeabi_unwind_cpp_pr2
                0x0000000000000000        0x8 /opt/tools/bin/../lib/gcc/arm-none-eabi/10.3.1/thumb/v7-m/nofp/libgcc.a(unwind-arm.o)
 .text._Unwind_VRS_Pop
                0x0000000000000000      0x274 /opt/tools/bin/../lib/gcc/arm-none-eabi/10.3.1/thumb/v7-m/nofp/libgcc.a(unwind-arm.o)
 .ARM.extab.text._Unwind_VRS_Pop
                0x0000000000000000        0x0 /opt/tools/bin/../lib/gcc/arm-none-eabi/10.3.1/thumb/v7-m/nofp/libgcc.a(unwind-arm.o)
 .ARM.exidx.text._Unwind_VRS_Pop
                0x0000000000000000        0x8 /opt/tools/bin/../lib/gcc/arm-none-eabi/10.3.1/thumb/v7-m/nofp/libgcc.a(unwind-arm.o)
 .debug_info    0x0000000000000000     0x1e22 /opt/tools/bin/../lib/gcc/arm-none-eabi/10.3.1/thumb/v7-m/nofp/libgcc.a(unwind-arm.o)
 .debug_abbrev  0x0000000000000000      0x46c /opt/tools/bin/../lib/gcc/arm-none-eabi/10.3.1/thumb/v7-m/nofp/libgcc.a(unwind-arm.o)
 .debug_loc     0x0000000000000000     0x1cfe /opt/tools/bin/../lib/gcc/arm-none-eabi/10.3.1/thumb/v7-m/nofp/libgcc.a(unwind-arm.o)
 .debug_aranges
                0x0000000000000000       0xf0 /opt/tools/bin/../lib/gcc/arm-none-eabi/10.3.1/thumb/v7-m/nofp/libgcc.a(unwind-arm.o)
 .debug_ranges  0x0000000000000000      0x1e8 /opt/tools/bin/../lib/gcc/arm-none-eabi/10.3.1/thumb/v7-m/nofp/libgcc.a(unwind-arm.o)
 .debug_line    0x0000000000000000     0x1167 /opt/tools/bin/../lib/gcc/arm-none-eabi/10.3.1/thumb/v7-m/nofp/libgcc.a(unwind-arm.o)
 .debug_str     0x0000000000000000      0xc7e /opt/tools/bin/../lib/gcc/arm-none-eabi/10.3.1/thumb/v7-m/nofp/libgcc.a(unwind-arm.o)
 .comment       0x0000000000000000       0x5e /opt/tools/bin/../lib/gcc/arm-none-eabi/10.3.1/thumb/v7-m/nofp/libgcc.a(unwind-arm.o)
 .debug_frame   0x0000000000000000      0x2e0 /opt/tools/bin/../lib/gcc/arm-none-eabi/10.3.1/thumb/v7-m/nofp/libgcc.a(unwind-arm.o)
 .ARM.attributes
                0x0000000000000000       0x2d /opt/tools/bin/../lib/gcc/arm-none-eabi/10.3.1/thumb/v7-m/nofp/libgcc.a(unwind-arm.o)
 .text          0x0000000000000000      0x1ac /opt/tools/bin/../lib/gcc/arm-none-eabi/10.3.1/thumb/v7-m/nofp/libgcc.a(libunwind.o)
 .data          0x0000000000000000        0x0 /opt/tools/bin/../lib/gcc/arm-none-eabi/10.3.1/thumb/v7-m/nofp/libgcc.a(libunwind.o)
 .bss           0x0000000000000000        0x0 /opt/tools/bin/../lib/gcc/arm-none-eabi/10.3.1/thumb/v7-m/nofp/libgcc.a(libunwind.o)
 .debug_line    0x0000000000000000       0xd0 /opt/tools/bin/../lib/gcc/arm-none-eabi/10.3.1/thumb/v7-m/nofp/libgcc.a(libunwind.o)
 .debug_info    0x0000000000000000       0x26 /opt/tools/bin/../lib/gcc/arm-none-eabi/10.3.1/thumb/v7-m/nofp/libgcc.a(libunwind.o)
 .debug_abbrev  0x0000000000000000       0x14 /opt/tools/bin/../lib/gcc/arm-none-eabi/10.3.1/thumb/v7-m/nofp/libgcc.a(libunwind.o)
 .debug_aranges
                0x0000000000000000       0x20 /opt/tools/bin/../lib/gcc/arm-none-eabi/10.3.1/thumb/v7-m/nofp/libgcc.a(libunwind.o)
 .debug_str     0x0000000000000000       0xd0 /opt/tools/bin/../lib/gcc/arm-none-eabi/10.3.1/thumb/v7-m/nofp/libgcc.a(libunwind.o)
 .ARM.attributes
                0x0000000000000000       0x1d /opt/tools/bin/../lib/gcc/arm-none-eabi/10.3.1/thumb/v7-m/nofp/libgcc.a(libunwind.o)
 .text          0x0000000000000000        0x0 /opt/tools/bin/../lib/gcc/arm-none-eabi/10.3.1/thumb/v7-m/nofp/libgcc.a(pr-support.o)
 .data          0x0000000000000000        0x0 /opt/tools/bin/../lib/gcc/arm-none-eabi/10.3.1/thumb/v7-m/nofp/libgcc.a(pr-support.o)
 .bss           0x0000000000000000        0x0 /opt/tools/bin/../lib/gcc/arm-none-eabi/10.3.1/thumb/v7-m/nofp/libgcc.a(pr-support.o)
 .text.next_unwind_byte
                0x0000000000000000       0x38 /opt/tools/bin/../lib/gcc/arm-none-eabi/10.3.1/thumb/v7-m/nofp/libgcc.a(pr-support.o)
 .ARM.extab.text.next_unwind_byte
                0x0000000000000000        0x0 /opt/tools/bin/../lib/gcc/arm-none-eabi/10.3.1/thumb/v7-m/nofp/libgcc.a(pr-support.o)
 .ARM.exidx.text.next_unwind_byte
                0x0000000000000000        0x8 /opt/tools/bin/../lib/gcc/arm-none-eabi/10.3.1/thumb/v7-m/nofp/libgcc.a(pr-support.o)
 .text._Unwind_GetGR.constprop.0
                0x0000000000000000       0x1c /opt/tools/bin/../lib/gcc/arm-none-eabi/10.3.1/thumb/v7-m/nofp/libgcc.a(pr-support.o)
 .ARM.extab.text._Unwind_GetGR.constprop.0
                0x0000000000000000        0x0 /opt/tools/bin/../lib/gcc/arm-none-eabi/10.3.1/thumb/v7-m/nofp/libgcc.a(pr-support.o)
 .ARM.exidx.text._Unwind_GetGR.constprop.0
                0x0000000000000000        0x8 /opt/tools/bin/../lib/gcc/arm-none-eabi/10.3.1/thumb/v7-m/nofp/libgcc.a(pr-support.o)
 .text.unwind_UCB_from_context
                0x0000000000000000        0x4 /opt/tools/bin/../lib/gcc/arm-none-eabi/10.3.1/thumb/v7-m/nofp/libgcc.a(pr-support.o)
 .ARM.extab.text.unwind_UCB_from_context
                0x0000000000000000        0x0 /opt/tools/bin/../lib/gcc/arm-none-eabi/10.3.1/thumb/v7-m/nofp/libgcc.a(pr-support.o)
 .ARM.exidx.text.unwind_UCB_from_context
                0x0000000000000000        0x8 /opt/tools/bin/../lib/gcc/arm-none-eabi/10.3.1/thumb/v7-m/nofp/libgcc.a(pr-support.o)
 .text.__gnu_unwind_execute
                0x0000000000000000      0x2e4 /opt/tools/bin/../lib/gcc/arm-none-eabi/10.3.1/thumb/v7-m/nofp/libgcc.a(pr-support.o)
 .ARM.extab.text.__gnu_unwind_execute
                0x0000000000000000        0x0 /opt/tools/bin/../lib/gcc/arm-none-eabi/10.3.1/thumb/v7-m/nofp/libgcc.a(pr-support.o)
 .ARM.exidx.text.__gnu_unwind_execute
                0x0000000000000000        0x8 /opt/tools/bin/../lib/gcc/arm-none-eabi/10.3.1/thumb/v7-m/nofp/libgcc.a(pr-support.o)
 .text.__gnu_unwind_frame
                0x0000000000000000       0x30 /opt/tools/bin/../lib/gcc/arm-none-eabi/10.3.1/thumb/v7-m/nofp/libgcc.a(pr-support.o)
 .ARM.extab.text.__gnu_unwind_frame
                0x0000000000000000        0x0 /opt/tools/bin/../lib/gcc/arm-none-eabi/10.3.1/thumb/v7-m/nofp/libgcc.a(pr-support.o)
 .ARM.exidx.text.__gnu_unwind_frame
                0x0000000000000000        0x8 /opt/tools/bin/../lib/gcc/arm-none-eabi/10.3.1/thumb/v7-m/nofp/libgcc.a(pr-support.o)
 .text._Unwind_GetRegionStart
                0x0000000000000000        0xc /opt/tools/bin/../lib/gcc/arm-none-eabi/10.3.1/thumb/v7-m/nofp/libgcc.a(pr-support.o)
 .ARM.extab.text._Unwind_GetRegionStart
                0x0000000000000000        0xc /opt/tools/bin/../lib/gcc/arm-none-eabi/10.3.1/thumb/v7-m/nofp/libgcc.a(pr-support.o)
 .ARM.exidx.text._Unwind_GetRegionStart
                0x0000000000000000        0x8 /opt/tools/bin/../lib/gcc/arm-none-eabi/10.3.1/thumb/v7-m/nofp/libgcc.a(pr-support.o)
 .text._Unwind_GetLanguageSpecificData
                0x0000000000000000       0x14 /opt/tools/bin/../lib/gcc/arm-none-eabi/10.3.1/thumb/v7-m/nofp/libgcc.a(pr-support.o)
 .ARM.extab.text._Unwind_GetLanguageSpecificData
                0x0000000000000000        0xc /opt/tools/bin/../lib/gcc/arm-none-eabi/10.3.1/thumb/v7-m/nofp/libgcc.a(pr-support.o)
 .ARM.exidx.text._Unwind_GetLanguageSpecificData
                0x0000000000000000        0x8 /opt/tools/bin/../lib/gcc/arm-none-eabi/10.3.1/thumb/v7-m/nofp/libgcc.a(pr-support.o)
 .text.unlikely._Unwind_GetDataRelBase
                0x0000000000000000        0x6 /opt/tools/bin/../lib/gcc/arm-none-eabi/10.3.1/thumb/v7-m/nofp/libgcc.a(pr-support.o)
 .ARM.extab.text.unlikely._Unwind_GetDataRelBase
                0x0000000000000000        0x0 /opt/tools/bin/../lib/gcc/arm-none-eabi/10.3.1/thumb/v7-m/nofp/libgcc.a(pr-support.o)
 .ARM.exidx.text.unlikely._Unwind_GetDataRelBase
                0x0000000000000000        0x8 /opt/tools/bin/../lib/gcc/arm-none-eabi/10.3.1/thumb/v7-m/nofp/libgcc.a(pr-support.o)
 .text.unlikely._Unwind_GetTextRelBase
                0x0000000000000000        0x6 /opt/tools/bin/../lib/gcc/arm-none-eabi/10.3.1/thumb/v7-m/nofp/libgcc.a(pr-support.o)
 .ARM.extab.text.unlikely._Unwind_GetTextRelBase
                0x0000000000000000        0x0 /opt/tools/bin/../lib/gcc/arm-none-eabi/10.3.1/thumb/v7-m/nofp/libgcc.a(pr-support.o)
 .ARM.exidx.text.unlikely._Unwind_GetTextRelBase
                0x0000000000000000        0x8 /opt/tools/bin/../lib/gcc/arm-none-eabi/10.3.1/thumb/v7-m/nofp/libgcc.a(pr-support.o)
 .debug_info    0x0000000000000000      0xa8c /opt/tools/bin/../lib/gcc/arm-none-eabi/10.3.1/thumb/v7-m/nofp/libgcc.a(pr-support.o)
 .debug_abbrev  0x0000000000000000      0x2d3 /opt/tools/bin/../lib/gcc/arm-none-eabi/10.3.1/thumb/v7-m/nofp/libgcc.a(pr-support.o)
 .debug_loc     0x0000000000000000      0x5cb /opt/tools/bin/../lib/gcc/arm-none-eabi/10.3.1/thumb/v7-m/nofp/libgcc.a(pr-support.o)
 .debug_aranges
                0x0000000000000000       0x58 /opt/tools/bin/../lib/gcc/arm-none-eabi/10.3.1/thumb/v7-m/nofp/libgcc.a(pr-support.o)
 .debug_ranges  0x0000000000000000       0x48 /opt/tools/bin/../lib/gcc/arm-none-eabi/10.3.1/thumb/v7-m/nofp/libgcc.a(pr-support.o)
 .debug_line    0x0000000000000000      0x5c2 /opt/tools/bin/../lib/gcc/arm-none-eabi/10.3.1/thumb/v7-m/nofp/libgcc.a(pr-support.o)
 .debug_str     0x0000000000000000      0x5a0 /opt/tools/bin/../lib/gcc/arm-none-eabi/10.3.1/thumb/v7-m/nofp/libgcc.a(pr-support.o)
 .comment       0x0000000000000000       0x5e /opt/tools/bin/../lib/gcc/arm-none-eabi/10.3.1/thumb/v7-m/nofp/libgcc.a(pr-support.o)
 .debug_frame   0x0000000000000000       0xf4 /opt/tools/bin/../lib/gcc/arm-none-eabi/10.3.1/thumb/v7-m/nofp/libgcc.a(pr-support.o)
 .ARM.attributes
                0x0000000000000000       0x2d /opt/tools/bin/../lib/gcc/arm-none-eabi/10.3.1/thumb/v7-m/nofp/libgcc.a(pr-support.o)
 .data          0x0000000000000000        0x0 /opt/tools/bin/../lib/gcc/arm-none-eabi/10.3.1/thumb/v7-m/nofp/libgcc.a(_dvmd_tls.o)
 .bss           0x0000000000000000        0x0 /opt/tools/bin/../lib/gcc/arm-none-eabi/10.3.1/thumb/v7-m/nofp/libgcc.a(_dvmd_tls.o)
 .text          0x0000000000000000        0x0 /opt/tools/bin/../lib/gcc/arm-none-eabi/10.3.1/../../../../arm-none-eabi/lib/thumb/v7-m/nofp/libc.a(lib_a-errno.o)
 .data          0x0000000000000000        0x0 /opt/tools/bin/../lib/gcc/arm-none-eabi/10.3.1/../../../../arm-none-eabi/lib/thumb/v7-m/nofp/libc.a(lib_a-errno.o)
 .bss           0x0000000000000000        0x0 /opt/tools/bin/../lib/gcc/arm-none-eabi/10.3.1/../../../../arm-none-eabi/lib/thumb/v7-m/nofp/libc.a(lib_a-errno.o)
 .text.__errno  0x0000000000000000        0xc /opt/tools/bin/../lib/gcc/arm-none-eabi/10.3.1/../../../../arm-none-eabi/lib/thumb/v7-m/nofp/libc.a(lib_a-errno.o)
 .debug_info    0x0000000000000000      0x914 /opt/tools/bin/../lib/gcc/arm-none-eabi/10.3.1/../../../../arm-none-eabi/lib/thumb/v7-m/nofp/libc.a(lib_a-errno.o)
 .debug_abbrev  0x0000000000000000      0x1be /opt/tools/bin/../lib/gcc/arm-none-eabi/10.3.1/../../../../arm-none-eabi/lib/thumb/v7-m/nofp/libc.a(lib_a-errno.o)
 .debug_aranges
                0x0000000000000000       0x20 /opt/tools/bin/../lib/gcc/arm-none-eabi/10.3.1/../../../../arm-none-eabi/lib/thumb/v7-m/nofp/libc.a(lib_a-errno.o)
 .debug_ranges  0x0000000000000000       0x10 /opt/tools/bin/../lib/gcc/arm-none-eabi/10.3.1/../../../../arm-none-eabi/lib/thumb/v7-m/nofp/libc.a(lib_a-errno.o)
 .debug_line    0x0000000000000000      0x179 /opt/tools/bin/../lib/gcc/arm-none-eabi/10.3.1/../../../../arm-none-eabi/lib/thumb/v7-m/nofp/libc.a(lib_a-errno.o)
 .debug_str     0x0000000000000000      0x5c7 /opt/tools/bin/../lib/gcc/arm-none-eabi/10.3.1/../../../../arm-none-eabi/lib/thumb/v7-m/nofp/libc.a(lib_a-errno.o)
 .comment       0x0000000000000000       0x5e /opt/tools/bin/../lib/gcc/arm-none-eabi/10.3.1/../../../../arm-none-eabi/lib/thumb/v7-m/nofp/libc.a(lib_a-errno.o)
 .debug_frame   0x0000000000000000       0x20 /opt/tools/bin/../lib/gcc/arm-none-eabi/10.3.1/../../../../arm-none-eabi/lib/thumb/v7-m/nofp/libc.a(lib_a-errno.o)
 .ARM.attributes
                0x0000000000000000       0x2d /opt/tools/bin/../lib/gcc/arm-none-eabi/10.3.1/../../../../arm-none-eabi/lib/thumb/v7-m/nofp/libc.a(lib_a-errno.o)
 .text          0x0000000000000000        0x0 /opt/tools/bin/../lib/gcc/arm-none-eabi/10.3.1/../../../../arm-none-eabi/lib/thumb/v7-m/nofp/libc.a(lib_a-impure.o)
 .data          0x0000000000000000        0x0 /opt/tools/bin/../lib/gcc/arm-none-eabi/10.3.1/../../../../arm-none-eabi/lib/thumb/v7-m/nofp/libc.a(lib_a-impure.o)
 .bss           0x0000000000000000        0x0 /opt/tools/bin/../lib/gcc/arm-none-eabi/10.3.1/../../../../arm-none-eabi/lib/thumb/v7-m/nofp/libc.a(lib_a-impure.o)
 .data._impure_ptr
                0x0000000000000000        0x4 /opt/tools/bin/../lib/gcc/arm-none-eabi/10.3.1/../../../../arm-none-eabi/lib/thumb/v7-m/nofp/libc.a(lib_a-impure.o)
 .data.impure_data
                0x0000000000000000      0x428 /opt/tools/bin/../lib/gcc/arm-none-eabi/10.3.1/../../../../arm-none-eabi/lib/thumb/v7-m/nofp/libc.a(lib_a-impure.o)
 .rodata._global_impure_ptr
                0x0000000000000000        0x4 /opt/tools/bin/../lib/gcc/arm-none-eabi/10.3.1/../../../../arm-none-eabi/lib/thumb/v7-m/nofp/libc.a(lib_a-impure.o)
 .debug_info    0x0000000000000000      0x92a /opt/tools/bin/../lib/gcc/arm-none-eabi/10.3.1/../../../../arm-none-eabi/lib/thumb/v7-m/nofp/libc.a(lib_a-impure.o)
 .debug_abbrev  0x0000000000000000      0x1b8 /opt/tools/bin/../lib/gcc/arm-none-eabi/10.3.1/../../../../arm-none-eabi/lib/thumb/v7-m/nofp/libc.a(lib_a-impure.o)
 .debug_aranges
                0x0000000000000000       0x18 /opt/tools/bin/../lib/gcc/arm-none-eabi/10.3.1/../../../../arm-none-eabi/lib/thumb/v7-m/nofp/libc.a(lib_a-impure.o)
 .debug_line    0x0000000000000000      0x154 /opt/tools/bin/../lib/gcc/arm-none-eabi/10.3.1/../../../../arm-none-eabi/lib/thumb/v7-m/nofp/libc.a(lib_a-impure.o)
 .debug_str     0x0000000000000000      0x5df /opt/tools/bin/../lib/gcc/arm-none-eabi/10.3.1/../../../../arm-none-eabi/lib/thumb/v7-m/nofp/libc.a(lib_a-impure.o)
 .comment       0x0000000000000000       0x5e /opt/tools/bin/../lib/gcc/arm-none-eabi/10.3.1/../../../../arm-none-eabi/lib/thumb/v7-m/nofp/libc.a(lib_a-impure.o)
 .ARM.attributes
                0x0000000000000000       0x2d /opt/tools/bin/../lib/gcc/arm-none-eabi/10.3.1/../../../../arm-none-eabi/lib/thumb/v7-m/nofp/libc.a(lib_a-impure.o)
 .data          0x0000000000000000        0x0 /opt/tools/bin/../lib/gcc/arm-none-eabi/10.3.1/../../../../arm-none-eabi/lib/thumb/v7-m/nofp/libc.a(lib_a-memcpy.o)
 .bss           0x0000000000000000        0x0 /opt/tools/bin/../lib/gcc/arm-none-eabi/10.3.1/../../../../arm-none-eabi/lib/thumb/v7-m/nofp/libc.a(lib_a-memcpy.o)
 .text          0x0000000000000000        0x0 /opt/tools/bin/../lib/gcc/arm-none-eabi/10.3.1/../../../../arm-none-eabi/lib/thumb/v7-m/nofp/libc.a(lib_a-memset.o)
 .data          0x0000000000000000        0x0 /opt/tools/bin/../lib/gcc/arm-none-eabi/10.3.1/../../../../arm-none-eabi/lib/thumb/v7-m/nofp/libc.a(lib_a-memset.o)
 .bss           0x0000000000000000        0x0 /opt/tools/bin/../lib/gcc/arm-none-eabi/10.3.1/../../../../arm-none-eabi/lib/thumb/v7-m/nofp/libc.a(lib_a-memset.o)
 .text.memset   0x0000000000000000       0xa4 /opt/tools/bin/../lib/gcc/arm-none-eabi/10.3.1/../../../../arm-none-eabi/lib/thumb/v7-m/nofp/libc.a(lib_a-memset.o)
 .debug_info    0x0000000000000000      0x137 /opt/tools/bin/../lib/gcc/arm-none-eabi/10.3.1/../../../../arm-none-eabi/lib/thumb/v7-m/nofp/libc.a(lib_a-memset.o)
 .debug_abbrev  0x0000000000000000       0xb4 /opt/tools/bin/../lib/gcc/arm-none-eabi/10.3.1/../../../../arm-none-eabi/lib/thumb/v7-m/nofp/libc.a(lib_a-memset.o)
 .debug_loc     0x0000000000000000      0x22c /opt/tools/bin/../lib/gcc/arm-none-eabi/10.3.1/../../../../arm-none-eabi/lib/thumb/v7-m/nofp/libc.a(lib_a-memset.o)
 .debug_aranges
                0x0000000000000000       0x20 /opt/tools/bin/../lib/gcc/arm-none-eabi/10.3.1/../../../../arm-none-eabi/lib/thumb/v7-m/nofp/libc.a(lib_a-memset.o)
 .debug_ranges  0x0000000000000000       0x10 /opt/tools/bin/../lib/gcc/arm-none-eabi/10.3.1/../../../../arm-none-eabi/lib/thumb/v7-m/nofp/libc.a(lib_a-memset.o)
 .debug_line    0x0000000000000000      0x22f /opt/tools/bin/../lib/gcc/arm-none-eabi/10.3.1/../../../../arm-none-eabi/lib/thumb/v7-m/nofp/libc.a(lib_a-memset.o)
 .debug_str     0x0000000000000000      0x218 /opt/tools/bin/../lib/gcc/arm-none-eabi/10.3.1/../../../../arm-none-eabi/lib/thumb/v7-m/nofp/libc.a(lib_a-memset.o)
 .comment       0x0000000000000000       0x5e /opt/tools/bin/../lib/gcc/arm-none-eabi/10.3.1/../../../../arm-none-eabi/lib/thumb/v7-m/nofp/libc.a(lib_a-memset.o)
 .debug_frame   0x0000000000000000       0x2c /opt/tools/bin/../lib/gcc/arm-none-eabi/10.3.1/../../../../arm-none-eabi/lib/thumb/v7-m/nofp/libc.a(lib_a-memset.o)
 .ARM.attributes
                0x0000000000000000       0x2d /opt/tools/bin/../lib/gcc/arm-none-eabi/10.3.1/../../../../arm-none-eabi/lib/thumb/v7-m/nofp/libc.a(lib_a-memset.o)
 .text          0x0000000000000000        0x0 /opt/tools/bin/../lib/gcc/arm-none-eabi/10.3.1/../../../../arm-none-eabi/lib/thumb/v7-m/nofp/libc.a(lib_a-strlen-stub.o)
 .data          0x0000000000000000        0x0 /opt/tools/bin/../lib/gcc/arm-none-eabi/10.3.1/../../../../arm-none-eabi/lib/thumb/v7-m/nofp/libc.a(lib_a-strlen-stub.o)
 .bss           0x0000000000000000        0x0 /opt/tools/bin/../lib/gcc/arm-none-eabi/10.3.1/../../../../arm-none-eabi/lib/thumb/v7-m/nofp/libc.a(lib_a-strlen-stub.o)

Memory Configuration

Name             Origin             Length             Attributes
RAM              0x0000000020000000 0x000000000000c000 xrw
RAM_APP          0x000000002000c000 0x0000000000004000 xrw
CCMRAM           0x0000000000000000 0x0000000000000000 xrw
FLASH            0x0000000008000000 0x0000000000020000 xr
FLASH_APP        0x0000000008020000 0x0000000000020000 xr
FLASHB1          0x0000000000000000 0x0000000000000000 xr
EXTMEMB0         0x0000000000000000 0x0000000000000000 xr
EXTMEMB1         0x0000000000000000 0x0000000000000000 xr
EXTMEMB2         0x0000000000000000 0x0000000000000000 xr
EXTMEMB3         0x0000000000000000 0x0000000000000000 xr
MEMORY_ARRAY     0x0000000000000000 0x0000000000000000 xrw
*default*        0x0000000000000000 0xffffffffffffffff

Linker script and memory map

LOAD obj/Debug/src/beremiz/app-di.o
LOAD obj/Debug/src/beremiz/app-do.o
LOAD obj/Debug/src/beremiz/app-sys.o
LOAD obj/Debug/src/beremiz/app.o
LOAD obj/Debug/src/freertos/rtos-error.o
LOAD obj/Debug/src/freertos/rtos-task-app.o
LOAD obj/Debug/src/freertos/rtos-task-data.o
LOAD obj/Debug/src/freertos/rtos-task-di.o
LOAD obj/Debug/src/freertos/rtos-task-do.o
LOAD obj/Debug/src/freertos/rtos-task-log.o
LOAD obj/Debug/src/freertos/rtos-task-mbrtu.o
LOAD obj/Debug/src/freertos/rtos-tim-app.o
LOAD obj/Debug/src/freertos/rtos.o
LOAD obj/Debug/src/main.o
LOAD obj/Debug/src/mbrtu.o
LOAD obj/Debug/src/reg-base.o
LOAD obj/Debug/src/reg.o
LOAD obj/Debug/src/scale.o
LOAD obj/Debug/src/stm32f1/di.o
LOAD obj/Debug/src/stm32f1/do.o
LOAD obj/Debug/src/stm32f1/soft-reset.o
LOAD obj/Debug/src/stm32f1/swd-debug.o
LOAD obj/Debug/src/stm32f1/sysclock.o
LOAD obj/Debug/src/stm32f1/systick.o
LOAD obj/Debug/src/stm32f1/tim2.o
LOAD obj/Debug/src/stm32f1/tim3.o
LOAD obj/Debug/src/stm32f1/usart.o
LOAD obj/Debug/src/stm32f1/usart1.o
LOAD obj/Debug/src/stm32f1/usart2.o
LOAD obj/Debug/src/stm32f1/usart3.o
LOAD obj/Debug/src/type.o
LOAD obj/Debug/src/xprintf.o
LOAD obj/Debug/system/beremiz/src/plc_app.o
LOAD obj/Debug/system/beremiz/src/plc_backup.o
LOAD obj/Debug/system/beremiz/src/plc_debug.o
LOAD obj/Debug/system/beremiz/src/plc_glue_rte.o
LOAD obj/Debug/system/beremiz/src/plc_rtc.o
LOAD obj/Debug/system/beremiz/src/plc_tick.o
LOAD obj/Debug/system/freertos/src/croutine.o
LOAD obj/Debug/system/freertos/src/event_groups.o
LOAD obj/Debug/system/freertos/src/heap_1.o
LOAD obj/Debug/system/freertos/src/list.o
LOAD obj/Debug/system/freertos/src/port.o
LOAD obj/Debug/system/freertos/src/queue.o
LOAD obj/Debug/system/freertos/src/stream_buffer.o
LOAD obj/Debug/system/freertos/src/tasks.o
LOAD obj/Debug/system/freertos/src/timers.o
LOAD obj/Debug/system/stm32f1/src/cmsis/system_stm32f10x.o
LOAD obj/Debug/system/stm32f1/src/cmsis/vectors_stm32f10x.o
LOAD obj/Debug/system/stm32f1/src/cortexm/_initialize_hardware.o
LOAD obj/Debug/system/stm32f1/src/cortexm/_reset_hardware.o
LOAD obj/Debug/system/stm32f1/src/cortexm/exception_handlers.o
LOAD obj/Debug/system/stm32f1/src/diag/Trace.o
LOAD obj/Debug/system/stm32f1/src/diag/trace_impl.o
LOAD obj/Debug/system/stm32f1/src/newlib/_cxx.o
LOAD obj/Debug/system/stm32f1/src/newlib/_exit.o
LOAD obj/Debug/system/stm32f1/src/newlib/_sbrk.o
LOAD obj/Debug/system/stm32f1/src/newlib/_startup.o
LOAD obj/Debug/system/stm32f1/src/newlib/_syscalls.o
LOAD obj/Debug/system/stm32f1/src/newlib/_write.o
LOAD obj/Debug/system/stm32f1/src/newlib/assert.o
LOAD obj/Debug/system/stm32f1/src/stm32f1-stdperiph/misc.o
LOAD obj/Debug/system/stm32f1/src/stm32f1-stdperiph/stm32f10x_adc.o
LOAD obj/Debug/system/stm32f1/src/stm32f1-stdperiph/stm32f10x_dac.o
LOAD obj/Debug/system/stm32f1/src/stm32f1-stdperiph/stm32f10x_dma.o
LOAD obj/Debug/system/stm32f1/src/stm32f1-stdperiph/stm32f10x_exti.o
LOAD obj/Debug/system/stm32f1/src/stm32f1-stdperiph/stm32f10x_flash.o
LOAD obj/Debug/system/stm32f1/src/stm32f1-stdperiph/stm32f10x_gpio.o
LOAD obj/Debug/system/stm32f1/src/stm32f1-stdperiph/stm32f10x_i2c.o
LOAD obj/Debug/system/stm32f1/src/stm32f1-stdperiph/stm32f10x_rcc.o
LOAD obj/Debug/system/stm32f1/src/stm32f1-stdperiph/stm32f10x_sdio.o
LOAD obj/Debug/system/stm32f1/src/stm32f1-stdperiph/stm32f10x_spi.o
LOAD obj/Debug/system/stm32f1/src/stm32f1-stdperiph/stm32f10x_tim.o
LOAD obj/Debug/system/stm32f1/src/stm32f1-stdperiph/stm32f10x_usart.o
LOAD /opt/tools/bin/../lib/gcc/arm-none-eabi/10.3.1/thumb/v7-m/nofp/libgcc.a
LOAD /opt/tools/bin/../lib/gcc/arm-none-eabi/10.3.1/../../../../arm-none-eabi/lib/thumb/v7-m/nofp/libstdc++.a
LOAD /opt/tools/bin/../lib/gcc/arm-none-eabi/10.3.1/../../../../arm-none-eabi/lib/thumb/v7-m/nofp/libm.a
START GROUP
LOAD /opt/tools/bin/../lib/gcc/arm-none-eabi/10.3.1/thumb/v7-m/nofp/libgcc.a
LOAD /opt/tools/bin/../lib/gcc/arm-none-eabi/10.3.1/../../../../arm-none-eabi/lib/thumb/v7-m/nofp/libc.a
END GROUP
                0x0000000020010000                PROVIDE (_stack = (ORIGIN (RAM_APP) + LENGTH (RAM_APP)))
                0x0000000008020000                PROVIDE (_app_start = ORIGIN (FLASH_APP))
                0x0000000008040000                PROVIDE (_app_end = (_app_start + LENGTH (FLASH_APP)))
                0x0000000020010000                __stack = (ORIGIN (RAM_APP) + LENGTH (RAM_APP))
                0x0000000020010000                _estack = __stack
                0x0000000000001000                __Main_Stack_Size = 0x1000
                [!provide]                        PROVIDE (_Main_Stack_Size = __Main_Stack_Size)
                0x000000002000f000                __Main_Stack_Limit = (__stack - __Main_Stack_Size)
                [!provide]                        PROVIDE (_Main_Stack_Limit = __Main_Stack_Limit)
                0x0000000000000100                _Minimum_Stack_Size = 0x100
                0x000000002000b56c                PROVIDE (_Heap_Begin = _end_noinit)
                0x000000002000f000                PROVIDE (_Heap_Limit = (__stack - __Main_Stack_Size))

.isr_vector     0x0000000008000000      0x36c
 FILL mask 0xff
                0x0000000008000000                __vectors_start = ABSOLUTE (.)
                0x0000000008000000                __vectors_start__ = ABSOLUTE (.)
 *(.isr_vector)
 .isr_vector    0x0000000008000000      0x1e4 obj/Debug/system/stm32f1/src/cmsis/vectors_stm32f10x.o
                0x0000000008000000                __isr_vectors
 *(.cfmconfig)
 *(.after_vectors .after_vectors.*)
 .after_vectors
                0x00000000080001e4        0x4 obj/Debug/system/stm32f1/src/cmsis/vectors_stm32f10x.o
                0x00000000080001e4                EXTI2_IRQHandler
                0x00000000080001e4                TIM8_TRG_COM_IRQHandler
                0x00000000080001e4                TIM8_CC_IRQHandler
                0x00000000080001e4                TIM1_CC_IRQHandler
                0x00000000080001e4                TIM6_IRQHandler
                0x00000000080001e4                PVD_IRQHandler
                0x00000000080001e4                SDIO_IRQHandler
                0x00000000080001e4                CAN2_RX1_IRQHandler
                0x00000000080001e4                EXTI3_IRQHandler
                0x00000000080001e4                TIM8_TRG_COM_TIM14_IRQHandler
                0x00000000080001e4                TIM1_UP_TIM10_IRQHandler
                0x00000000080001e4                TIM8_UP_TIM13_IRQHandler
                0x00000000080001e4                EXTI0_IRQHandler
                0x00000000080001e4                I2C2_EV_IRQHandler
                0x00000000080001e4                CAN1_RX0_IRQHandler
                0x00000000080001e4                TIM1_UP_TIM16_IRQHandler
                0x00000000080001e4                CAN2_SCE_IRQHandler
                0x00000000080001e4                ADC1_2_IRQHandler
                0x00000000080001e4                SPI1_IRQHandler
                0x00000000080001e4                TAMPER_IRQHandler
                0x00000000080001e4                TIM6_DAC_IRQHandler
                0x00000000080001e4                TIM1_BRK_TIM9_IRQHandler
                0x00000000080001e4                CAN2_RX0_IRQHandler
                0x00000000080001e4                TIM8_UP_IRQHandler
                0x00000000080001e4                DMA2_Channel2_IRQHandler
                0x00000000080001e4                DMA1_Channel4_IRQHandler
                0x00000000080001e4                USART3_IRQHandler
                0x00000000080001e4                RTC_IRQHandler
                0x00000000080001e4                DMA1_Channel7_IRQHandler
                0x00000000080001e4                CAN1_RX1_IRQHandler
                0x00000000080001e4                UART5_IRQHandler
                0x00000000080001e4                ADC3_IRQHandler
                0x00000000080001e4                TIM4_IRQHandler
                0x00000000080001e4                DMA2_Channel1_IRQHandler
                0x00000000080001e4                I2C1_EV_IRQHandler
                0x00000000080001e4                DMA1_Channel6_IRQHandler
                0x00000000080001e4                UART4_IRQHandler
                0x00000000080001e4                DMA2_Channel4_IRQHandler
                0x00000000080001e4                RCC_IRQHandler
                0x00000000080001e4                TIM8_BRK_TIM12_IRQHandler
                0x00000000080001e4                TIM1_TRG_COM_IRQHandler
                0x00000000080001e4                DMA1_Channel1_IRQHandler
                0x00000000080001e4                Default_Handler
                0x00000000080001e4                CEC_IRQHandler
                0x00000000080001e4                TIM14_IRQHandler
                0x00000000080001e4                TIM13_IRQHandler
                0x00000000080001e4                TIM12_IRQHandler
                0x00000000080001e4                TIM7_IRQHandler
                0x00000000080001e4                CAN2_TX_IRQHandler
                0x00000000080001e4                TIM5_IRQHandler
                0x00000000080001e4                ETH_WKUP_IRQHandler
                0x00000000080001e4                SPI2_IRQHandler
                0x00000000080001e4                CAN1_TX_IRQHandler
                0x00000000080001e4                DMA2_Channel5_IRQHandler
                0x00000000080001e4                DMA1_Channel5_IRQHandler
                0x00000000080001e4                EXTI4_IRQHandler
                0x00000000080001e4                USB_LP_CAN1_RX0_IRQHandler
                0x00000000080001e4                TIM1_TRG_COM_TIM17_IRQHandler
                0x00000000080001e4                USB_HP_CAN1_TX_IRQHandler
                0x00000000080001e4                DMA1_Channel3_IRQHandler
                0x00000000080001e4                FSMC_IRQHandler
                0x00000000080001e4                ETH_IRQHandler
                0x00000000080001e4                TIM1_UP_IRQHandler
                0x00000000080001e4                WWDG_IRQHandler
                0x00000000080001e4                OTG_FS_WKUP_IRQHandler
                0x00000000080001e4                TIM1_TRG_COM_TIM11_IRQHandler
                0x00000000080001e4                TIM1_BRK_IRQHandler
                0x00000000080001e4                EXTI1_IRQHandler
                0x00000000080001e4                RTCAlarm_IRQHandler
                0x00000000080001e4                DMA2_Channel4_5_IRQHandler
                0x00000000080001e4                I2C2_ER_IRQHandler
                0x00000000080001e4                DMA1_Channel2_IRQHandler
                0x00000000080001e4                TIM8_BRK_IRQHandler
                0x00000000080001e4                CAN1_SCE_IRQHandler
                0x00000000080001e4                FLASH_IRQHandler
                0x00000000080001e4                OTG_FS_IRQHandler
                0x00000000080001e4                SPI3_IRQHandler
                0x00000000080001e4                I2C1_ER_IRQHandler
                0x00000000080001e4                USBWakeUp_IRQHandler
                0x00000000080001e4                DMA2_Channel3_IRQHandler
                0x00000000080001e4                TIM1_BRK_TIM15_IRQHandler
 .after_vectors
                0x00000000080001e8       0x70 obj/Debug/system/stm32f1/src/cortexm/exception_handlers.o
                0x00000000080001e8                Reset_Handler
                0x00000000080001ee                NMI_Handler
                0x00000000080001f2                HardFault_Handler
                0x0000000008000206                HardFault_Handler_C
                0x000000000800020a                MemManage_Handler
                0x000000000800020e                BusFault_Handler
                0x0000000008000222                BusFault_Handler_C
                0x0000000008000226                UsageFault_Handler
                0x000000000800023a                UsageFault_Handler_C
                0x0000000008000242                DebugMon_Handler
 .after_vectors
                0x0000000008000258      0x114 obj/Debug/system/stm32f1/src/newlib/_startup.o
                0x0000000008000258                _start

.inits          0x000000000800036c       0x28
                0x000000000800036c                __data_regions_array_start = .
                0x000000000800036c        0x4 LONG 0x800b4b0 LOADADDR (.data)
                0x0000000008000370        0x4 LONG 0x20000000 ADDR (.data)
                0x0000000008000374        0x4 LONG 0x20000080 (ADDR (.data) + SIZEOF (.data))
                0x0000000008000378        0x4 LONG 0x800b4b0 LOADADDR (.data_CCMRAM)
                0x000000000800037c        0x4 LONG 0x0 ADDR (.data_CCMRAM)
                0x0000000008000380        0x4 LONG 0x0 (ADDR (.data_CCMRAM) + SIZEOF (.data_CCMRAM))
                0x0000000008000384                __data_regions_array_end = .
                0x0000000008000384                __bss_regions_array_start = .
                0x0000000008000384        0x4 LONG 0x20000080 ADDR (.bss)
                0x0000000008000388        0x4 LONG 0x2000b56c (ADDR (.bss) + SIZEOF (.bss))
                0x000000000800038c        0x4 LONG 0x0 ADDR (.bss_CCMRAM)
                0x0000000008000390        0x4 LONG 0x0 (ADDR (.bss_CCMRAM) + SIZEOF (.bss_CCMRAM))
                0x0000000008000394                __bss_regions_array_end = .
 *(.init)
 *(.fini)
                0x0000000008000394                . = ALIGN (0x4)
                0x0000000008000394                PROVIDE (__preinit_array_start = .)
 *(.preinit_array_sysinit .preinit_array_sysinit.*)
 *(.preinit_array_platform .preinit_array_platform.*)
 *(.preinit_array .preinit_array.*)
                0x0000000008000394                PROVIDE (__preinit_array_end = .)
                0x0000000008000394                . = ALIGN (0x4)
                0x0000000008000394                PROVIDE (__init_array_start = .)
 *(SORT_BY_NAME(.init_array.*))
 *(.init_array)
                0x0000000008000394                PROVIDE (__init_array_end = .)
                0x0000000008000394                . = ALIGN (0x4)
                0x0000000008000394                PROVIDE (__fini_array_start = .)
 *(SORT_BY_NAME(.fini_array.*))
 *(.fini_array)
                0x0000000008000394                PROVIDE (__fini_array_end = .)

.flashtext
 *(.flashtext .flashtext.*)

.text           0x00000000080003a0     0xb107
 *(.text .text.*)
 .text.PlcApp_DIMode
                0x00000000080003a0       0x9c obj/Debug/src/beremiz/app-di.o
                0x00000000080003a0                PlcApp_DIMode
 .text.PlcApp_DIVal
                0x000000000800043c       0x70 obj/Debug/src/beremiz/app-di.o
                0x000000000800043c                PlcApp_DIVal
 .text.PlcApp_DICntT
                0x00000000080004ac       0xac obj/Debug/src/beremiz/app-di.o
                0x00000000080004ac                PlcApp_DICntT
 .text.PlcApp_DICnt
                0x0000000008000558       0xac obj/Debug/src/beremiz/app-di.o
                0x0000000008000558                PlcApp_DICnt
 .text.PlcApp_DICntRst
                0x0000000008000604       0x78 obj/Debug/src/beremiz/app-di.o
                0x0000000008000604                PlcApp_DICntRst
 .text.PlcApp_DIEnc
                0x000000000800067c      0x13c obj/Debug/src/beremiz/app-di.o
                0x000000000800067c                PlcApp_DIEnc
 .text.PlcApp_DOMode
                0x00000000080007b8       0x74 obj/Debug/src/beremiz/app-do.o
                0x00000000080007b8                PlcApp_DOMode
 .text.PlcApp_DOVal
                0x000000000800082c       0xb0 obj/Debug/src/beremiz/app-do.o
                0x000000000800082c                PlcApp_DOVal
 .text.PlcApp_DOFast
                0x00000000080008dc       0x84 obj/Debug/src/beremiz/app-do.o
                0x00000000080008dc                PlcApp_DOFast
 .text.PlcApp_DOPwm
                0x0000000008000960       0xa8 obj/Debug/src/beremiz/app-do.o
                0x0000000008000960                PlcApp_DOPwm
 .text.PlcApp_DOSafe
                0x0000000008000a08       0x78 obj/Debug/src/beremiz/app-do.o
                0x0000000008000a08                PlcApp_DOSafe
 .text.PlcApp_SoftwareReset
                0x0000000008000a80        0xc obj/Debug/src/beremiz/app-sys.o
                0x0000000008000a80                PlcApp_SoftwareReset
 .text.PlcApp_GetTime
                0x0000000008000a8c       0x38 obj/Debug/src/beremiz/app.o
                0x0000000008000a8c                PlcApp_GetTime
 .text.PlcApp_InitFuncs
                0x0000000008000ac4       0x98 obj/Debug/src/beremiz/app.o
                0x0000000008000ac4                PlcApp_InitFuncs
 .text.RTOS_Error
                0x0000000008000b5c       0xbc obj/Debug/src/freertos/rtos-error.o
                0x0000000008000b5c                RTOS_Error
 .text.RTOS_TaskApp_InitTimApp
                0x0000000008000c18       0x50 obj/Debug/src/freertos/rtos-task-app.o
                0x0000000008000c18                RTOS_TaskApp_InitTimApp
 .text.RTOS_TaskApp
                0x0000000008000c68      0x110 obj/Debug/src/freertos/rtos-task-app.o
                0x0000000008000c68                RTOS_TaskApp
 .text.RTOS_TimApp
                0x0000000008000d78       0x18 obj/Debug/src/freertos/rtos-task-app.o
                0x0000000008000d78                RTOS_TimApp
 .text.RTOS_TaskData_DiSet
                0x0000000008000d90       0x5c obj/Debug/src/freertos/rtos-task-data.o
                0x0000000008000d90                RTOS_TaskData_DiSet
 .text.RTOS_TaskData_Di
                0x0000000008000dec      0x1be obj/Debug/src/freertos/rtos-task-data.o
                0x0000000008000dec                RTOS_TaskData_Di
 *fill*         0x0000000008000faa        0x2 
 .text.RTOS_TaskData_DoSetInt
                0x0000000008000fac       0x60 obj/Debug/src/freertos/rtos-task-data.o
                0x0000000008000fac                RTOS_TaskData_DoSetInt
 .text.RTOS_TaskData_DoSetReal
                0x000000000800100c       0x5c obj/Debug/src/freertos/rtos-task-data.o
                0x000000000800100c                RTOS_TaskData_DoSetReal
 .text.RTOS_TaskData_RegMonitor
                0x0000000008001068       0xa6 obj/Debug/src/freertos/rtos-task-data.o
                0x0000000008001068                RTOS_TaskData_RegMonitor
 *fill*         0x000000000800110e        0x2 
 .text.RTOS_TaskData
                0x0000000008001110       0xb8 obj/Debug/src/freertos/rtos-task-data.o
                0x0000000008001110                RTOS_TaskData
 .text.RTOS_TimDiTach_Start
                0x00000000080011c8       0x34 obj/Debug/src/freertos/rtos-task-di.o
                0x00000000080011c8                RTOS_TimDiTach_Start
 .text.RTOS_TimDiTach_Stop
                0x00000000080011fc       0x30 obj/Debug/src/freertos/rtos-task-di.o
                0x00000000080011fc                RTOS_TimDiTach_Stop
 .text.RTOS_TaskDI_RefreshTach
                0x000000000800122c       0x34 obj/Debug/src/freertos/rtos-task-di.o
                0x000000000800122c                RTOS_TaskDI_RefreshTach
 .text.RTOS_TaskDI_TachSetpoint
                0x0000000008001260       0x50 obj/Debug/src/freertos/rtos-task-di.o
                0x0000000008001260                RTOS_TaskDI_TachSetpoint
 .text.RTOS_TaskDI_TachReset
                0x00000000080012b0       0x24 obj/Debug/src/freertos/rtos-task-di.o
                0x00000000080012b0                RTOS_TaskDI_TachReset
 .text.RTOS_TaskDI_TachCntr
                0x00000000080012d4       0x34 obj/Debug/src/freertos/rtos-task-di.o
                0x00000000080012d4                RTOS_TaskDI_TachCntr
 .text.RTOS_TaskDI_CntrSetpoint
                0x0000000008001308       0x54 obj/Debug/src/freertos/rtos-task-di.o
                0x0000000008001308                RTOS_TaskDI_CntrSetpoint
 .text.RTOS_TaskDI_CntrReset
                0x000000000800135c       0x24 obj/Debug/src/freertos/rtos-task-di.o
                0x000000000800135c                RTOS_TaskDI_CntrReset
 .text.RTOS_TaskDI_Cntr
                0x0000000008001380       0x4c obj/Debug/src/freertos/rtos-task-di.o
                0x0000000008001380                RTOS_TaskDI_Cntr
 .text.RTOS_TaskDI_Inc1
                0x00000000080013cc       0x3c obj/Debug/src/freertos/rtos-task-di.o
                0x00000000080013cc                RTOS_TaskDI_Inc1
 .text.RTOS_TaskDI_Inc2
                0x0000000008001408       0x40 obj/Debug/src/freertos/rtos-task-di.o
                0x0000000008001408                RTOS_TaskDI_Inc2
 .text.RTOS_TaskDI_TestPair
                0x0000000008001448       0x30 obj/Debug/src/freertos/rtos-task-di.o
                0x0000000008001448                RTOS_TaskDI_TestPair
 .text.RTOS_TaskDI_SetTachSetpoint
                0x0000000008001478       0x38 obj/Debug/src/freertos/rtos-task-di.o
                0x0000000008001478                RTOS_TaskDI_SetTachSetpoint
 .text.RTOS_TaskDI_SetCntrSetpoint
                0x00000000080014b0       0x38 obj/Debug/src/freertos/rtos-task-di.o
                0x00000000080014b0                RTOS_TaskDI_SetCntrSetpoint
 .text.RTOS_TaskDI_SetReset
                0x00000000080014e8       0xa0 obj/Debug/src/freertos/rtos-task-di.o
                0x00000000080014e8                RTOS_TaskDI_SetReset
 .text.RTOS_TaskDI_SetMode
                0x0000000008001588       0xf8 obj/Debug/src/freertos/rtos-task-di.o
                0x0000000008001588                RTOS_TaskDI_SetMode
 .text.RTOS_TaskDI_Set
                0x0000000008001680      0x16c obj/Debug/src/freertos/rtos-task-di.o
                0x0000000008001680                RTOS_TaskDI_Set
 .text.RTOS_TaskDI_IRQ
                0x00000000080017ec      0x110 obj/Debug/src/freertos/rtos-task-di.o
                0x00000000080017ec                RTOS_TaskDI_IRQ
 .text.RTOS_TaskDI_Init
                0x00000000080018fc      0x148 obj/Debug/src/freertos/rtos-task-di.o
                0x00000000080018fc                RTOS_TaskDI_Init
 .text.RTOS_TimDiTach
                0x0000000008001a44       0xa0 obj/Debug/src/freertos/rtos-task-di.o
                0x0000000008001a44                RTOS_TimDiTach
 .text.RTOS_TaskDO_CalcPwmLen1
                0x0000000008001ae4       0x38 obj/Debug/src/freertos/rtos-task-do.o
                0x0000000008001ae4                RTOS_TaskDO_CalcPwmLen1
 .text.RTOS_TaskDO_RefreshPwm
                0x0000000008001b1c       0x40 obj/Debug/src/freertos/rtos-task-do.o
                0x0000000008001b1c                RTOS_TaskDO_RefreshPwm
 .text.RTOS_TaskDO_SetVal
                0x0000000008001b5c       0x28 obj/Debug/src/freertos/rtos-task-do.o
                0x0000000008001b5c                RTOS_TaskDO_SetVal
 .text.RTOS_TaskDO_SetNormVal
                0x0000000008001b84       0x44 obj/Debug/src/freertos/rtos-task-do.o
                0x0000000008001b84                RTOS_TaskDO_SetNormVal
 .text.RTOS_TaskDO_SetPostponedVal
                0x0000000008001bc8       0x2c obj/Debug/src/freertos/rtos-task-do.o
                0x0000000008001bc8                RTOS_TaskDO_SetPostponedVal
 .text.RTOS_TaskDO_SetPostponedApply
                0x0000000008001bf4       0x5c obj/Debug/src/freertos/rtos-task-do.o
                0x0000000008001bf4                RTOS_TaskDO_SetPostponedApply
 .text.RTOS_TaskDO_SetFastVal
                0x0000000008001c50       0x44 obj/Debug/src/freertos/rtos-task-do.o
                0x0000000008001c50                RTOS_TaskDO_SetFastVal
 .text.RTOS_TaskDO_SetPwmFillFactor
                0x0000000008001c94       0xb0 obj/Debug/src/freertos/rtos-task-do.o
                0x0000000008001c94                RTOS_TaskDO_SetPwmFillFactor
 .text.RTOS_TaskDO_SetPwmPeriod
                0x0000000008001d44       0x88 obj/Debug/src/freertos/rtos-task-do.o
                0x0000000008001d44                RTOS_TaskDO_SetPwmPeriod
 .text.RTOS_TaskDO_SetPwmAllow
                0x0000000008001dcc       0x2c obj/Debug/src/freertos/rtos-task-do.o
                0x0000000008001dcc                RTOS_TaskDO_SetPwmAllow
 .text.RTOS_TaskDO_SetMode
                0x0000000008001df8       0xa4 obj/Debug/src/freertos/rtos-task-do.o
                0x0000000008001df8                RTOS_TaskDO_SetMode
 .text.RTOS_TaskDO_SetSafeAllow
                0x0000000008001e9c       0x38 obj/Debug/src/freertos/rtos-task-do.o
                0x0000000008001e9c                RTOS_TaskDO_SetSafeAllow
 .text.RTOS_TaskDO_SetSafeVal
                0x0000000008001ed4       0x38 obj/Debug/src/freertos/rtos-task-do.o
                0x0000000008001ed4                RTOS_TaskDO_SetSafeVal
 .text.RTOS_TaskDO_Set
                0x0000000008001f0c       0xbe obj/Debug/src/freertos/rtos-task-do.o
                0x0000000008001f0c                RTOS_TaskDO_Set
 *fill*         0x0000000008001fca        0x2 
 .text.RTOS_TaskDO_Init
                0x0000000008001fcc      0x10c obj/Debug/src/freertos/rtos-task-do.o
                0x0000000008001fcc                RTOS_TaskDO_Init
 .text.RTOS_TaskDO
                0x00000000080020d8       0x38 obj/Debug/src/freertos/rtos-task-do.o
                0x00000000080020d8                RTOS_TaskDO
 .text.TIM2_IRQHandler
                0x0000000008002110      0x110 obj/Debug/src/freertos/rtos-task-do.o
                0x0000000008002110                TIM2_IRQHandler
 .text.RTOS_TaskLog_Out
                0x0000000008002220       0x10 obj/Debug/src/freertos/rtos-task-log.o
                0x0000000008002220                RTOS_TaskLog_Out
 .text.RTOS_TaskLog
                0x0000000008002230       0x44 obj/Debug/src/freertos/rtos-task-log.o
                0x0000000008002230                RTOS_TaskLog
 .text.DebugLog
                0x0000000008002274       0x98 obj/Debug/src/freertos/rtos-task-log.o
                0x0000000008002274                DebugLog
 .text.RTOS_TaskMbRtu_Slave
                0x000000000800230c       0xf0 obj/Debug/src/freertos/rtos-task-mbrtu.o
                0x000000000800230c                RTOS_TaskMbRtu_Slave
 .text.RTOS_TaskMbRtu
                0x00000000080023fc       0x1c obj/Debug/src/freertos/rtos-task-mbrtu.o
                0x00000000080023fc                RTOS_TaskMbRtu
 .text.TIM3_IRQHandler
                0x0000000008002418       0x34 obj/Debug/src/freertos/rtos-tim-app.o
                0x0000000008002418                TIM3_IRQHandler
 .text.main     0x000000000800244c      0x438 obj/Debug/src/main.o
                0x000000000800244c                main
 .text.MBRTU_InitDef
                0x0000000008002884       0x9c obj/Debug/src/mbrtu.o
                0x0000000008002884                MBRTU_InitDef
 .text.MBRTU_UsartDefBaudRate
                0x0000000008002920       0x40 obj/Debug/src/mbrtu.o
                0x0000000008002920                MBRTU_UsartDefBaudRate
 .text.MBRTU_UsartDefDataBits
                0x0000000008002960        0xe obj/Debug/src/mbrtu.o
                0x0000000008002960                MBRTU_UsartDefDataBits
 .text.MBRTU_UsartDefParity
                0x000000000800296e       0x18 obj/Debug/src/mbrtu.o
                0x000000000800296e                MBRTU_UsartDefParity
 .text.MBRTU_UsartDefStopBits
                0x0000000008002986        0xe obj/Debug/src/mbrtu.o
                0x0000000008002986                MBRTU_UsartDefStopBits
 .text.MBRTU_CalcCRC16
                0x0000000008002994       0x56 obj/Debug/src/mbrtu.o
                0x0000000008002994                MBRTU_CalcCRC16
 .text.MBRTU_TestCRC16
                0x00000000080029ea       0x18 obj/Debug/src/mbrtu.o
                0x00000000080029ea                MBRTU_TestCRC16
 .text.MBRTU_ParseReq
                0x0000000008002a02       0x4c obj/Debug/src/mbrtu.o
                0x0000000008002a02                MBRTU_ParseReq
 .text.MBRTU_CreateResHeader
                0x0000000008002a4e       0x40 obj/Debug/src/mbrtu.o
                0x0000000008002a4e                MBRTU_CreateResHeader
 .text.MBRTU_CreateResCRC
                0x0000000008002a8e       0x3e obj/Debug/src/mbrtu.o
                0x0000000008002a8e                MBRTU_CreateResCRC
 .text.MBRTU_CreateResExc
                0x0000000008002acc       0x32 obj/Debug/src/mbrtu.o
                0x0000000008002acc                MBRTU_CreateResExc
 .text.MBRTU_TestHoldReq
                0x0000000008002afe       0x2a obj/Debug/src/mbrtu.o
                0x0000000008002afe                MBRTU_TestHoldReq
 .text.MBRTU_TestHoldNRegs
                0x0000000008002b28       0x32 obj/Debug/src/mbrtu.o
                0x0000000008002b28                MBRTU_TestHoldNRegs
 .text.MBRTU_TestHoldNBytes
                0x0000000008002b5a       0x24 obj/Debug/src/mbrtu.o
                0x0000000008002b5a                MBRTU_TestHoldNBytes
 .text.MBRTU_TestHoldAddr
                0x0000000008002b7e       0x3c obj/Debug/src/mbrtu.o
                0x0000000008002b7e                MBRTU_TestHoldAddr
 .text.MBRTU_TestInptReq
                0x0000000008002bba       0x1c obj/Debug/src/mbrtu.o
                0x0000000008002bba                MBRTU_TestInptReq
 .text.MBRTU_TestInptNRegs
                0x0000000008002bd6       0x28 obj/Debug/src/mbrtu.o
                0x0000000008002bd6                MBRTU_TestInptNRegs
 .text.MBRTU_TestInptAddr
                0x0000000008002bfe       0x3c obj/Debug/src/mbrtu.o
                0x0000000008002bfe                MBRTU_TestInptAddr
 .text.MBRTU_ReadRegs
                0x0000000008002c3a      0x144 obj/Debug/src/mbrtu.o
                0x0000000008002c3a                MBRTU_ReadRegs
 .text.MBRTU_WriteHoldRegs
                0x0000000008002d7e      0x1a6 obj/Debug/src/mbrtu.o
                0x0000000008002d7e                MBRTU_WriteHoldRegs
 .text.MBRTU_TestCoilReq
                0x0000000008002f24       0x2a obj/Debug/src/mbrtu.o
                0x0000000008002f24                MBRTU_TestCoilReq
 .text.MBRTU_TestCoilNRegs
                0x0000000008002f4e       0x36 obj/Debug/src/mbrtu.o
                0x0000000008002f4e                MBRTU_TestCoilNRegs
 .text.MBRTU_TestCoilNBytes
                0x0000000008002f84       0x32 obj/Debug/src/mbrtu.o
                0x0000000008002f84                MBRTU_TestCoilNBytes
 .text.MBRTU_TestCoilAddr
                0x0000000008002fb6       0x3c obj/Debug/src/mbrtu.o
                0x0000000008002fb6                MBRTU_TestCoilAddr
 .text.MBRTU_TestDiscReq
                0x0000000008002ff2       0x1c obj/Debug/src/mbrtu.o
                0x0000000008002ff2                MBRTU_TestDiscReq
 .text.MBRTU_TestDiscNRegs
                0x000000000800300e       0x2a obj/Debug/src/mbrtu.o
                0x000000000800300e                MBRTU_TestDiscNRegs
 .text.MBRTU_TestDiscAddr
                0x0000000008003038       0x3c obj/Debug/src/mbrtu.o
                0x0000000008003038                MBRTU_TestDiscAddr
 .text.MBRTU_ReadDiscretes
                0x0000000008003074      0x144 obj/Debug/src/mbrtu.o
                0x0000000008003074                MBRTU_ReadDiscretes
 .text.MBRTU_WriteCoils
                0x00000000080031b8      0x146 obj/Debug/src/mbrtu.o
                0x00000000080031b8                MBRTU_WriteCoils
 .text.MBRTU_TestDiagReq
                0x00000000080032fe       0x1c obj/Debug/src/mbrtu.o
                0x00000000080032fe                MBRTU_TestDiagReq
 .text.MBRTU_DiagEcho
                0x000000000800331a       0x44 obj/Debug/src/mbrtu.o
                0x000000000800331a                MBRTU_DiagEcho
 .text.MBRTU_DiagCount
                0x000000000800335e       0x64 obj/Debug/src/mbrtu.o
                0x000000000800335e                MBRTU_DiagCount
 .text.MBRTU_Diagnostics
                0x00000000080033c2       0xa4 obj/Debug/src/mbrtu.o
                0x00000000080033c2                MBRTU_Diagnostics
 .text.MBRTU_CreateRes
                0x0000000008003466       0x96 obj/Debug/src/mbrtu.o
                0x0000000008003466                MBRTU_CreateRes
 .text.MBRTU_Start
                0x00000000080034fc       0x68 obj/Debug/src/mbrtu.o
                0x00000000080034fc                MBRTU_Start
 .text.MBRTU_SendRes
                0x0000000008003564       0x40 obj/Debug/src/mbrtu.o
                0x0000000008003564                MBRTU_SendRes
 .text.REG_GetByIDx
                0x00000000080035a4       0x18 obj/Debug/src/reg-base.o
                0x00000000080035a4                REG_GetByIDx
 .text.REG_GetByPos
                0x00000000080035bc       0x28 obj/Debug/src/reg-base.o
                0x00000000080035bc                REG_GetByPos
 .text.REG_GetByMbAddr
                0x00000000080035e4      0x182 obj/Debug/src/reg-base.o
                0x00000000080035e4                REG_GetByMbAddr
 .text.REG_MonitorSendToQueue
                0x0000000008003766       0x22 obj/Debug/src/reg-base.o
                0x0000000008003766                REG_MonitorSendToQueue
 .text.REG_MonitorByMbAddr
                0x0000000008003788       0x32 obj/Debug/src/reg-base.o
                0x0000000008003788                REG_MonitorByMbAddr
 *fill*         0x00000000080037ba        0x2 
 .text.REG_CopyWords
                0x00000000080037bc       0x68 obj/Debug/src/reg-base.o
                0x00000000080037bc                REG_CopyWords
 .text.REG_CopyValueToMb
                0x0000000008003824       0xa4 obj/Debug/src/reg-base.o
                0x0000000008003824                REG_CopyValueToMb
 .text.REG_CopyWordsToMb
                0x00000000080038c8       0xb0 obj/Debug/src/reg-base.o
                0x00000000080038c8                REG_CopyWordsToMb
 .text.REG_CopyValueFromMb
                0x0000000008003978       0x54 obj/Debug/src/reg-base.o
                0x0000000008003978                REG_CopyValueFromMb
 .text.REG_CopyWordsFromMb
                0x00000000080039cc       0x74 obj/Debug/src/reg-base.o
                0x00000000080039cc                REG_CopyWordsFromMb
 .text.REG_CopyUnsignedAppToMb
                0x0000000008003a40       0xa6 obj/Debug/src/reg-base.o
                0x0000000008003a40                REG_CopyUnsignedAppToMb
 .text.REG_CopyUnsignedMbToVar
                0x0000000008003ae6       0x8e obj/Debug/src/reg-base.o
                0x0000000008003ae6                REG_CopyUnsignedMbToVar
 .text.REG_CopyUnsignedMbToApp
                0x0000000008003b74       0x18 obj/Debug/src/reg-base.o
                0x0000000008003b74                REG_CopyUnsignedMbToApp
 .text.REG_CopyUnsignedVarToMb
                0x0000000008003b8c       0x9e obj/Debug/src/reg-base.o
                0x0000000008003b8c                REG_CopyUnsignedVarToMb
 .text.REG_CopyUnsignedVarToApp
                0x0000000008003c2a       0x52 obj/Debug/src/reg-base.o
                0x0000000008003c2a                REG_CopyUnsignedVarToApp
 .text.REG_CopyUnsigned
                0x0000000008003c7c       0x6e obj/Debug/src/reg-base.o
                0x0000000008003c7c                REG_CopyUnsigned
 .text.REG_CopySignedAppToMb
                0x0000000008003cea       0xae obj/Debug/src/reg-base.o
                0x0000000008003cea                REG_CopySignedAppToMb
 .text.REG_CopySignedMbToVar
                0x0000000008003d98       0x8e obj/Debug/src/reg-base.o
                0x0000000008003d98                REG_CopySignedMbToVar
 .text.REG_CopySignedMbToApp
                0x0000000008003e26       0x18 obj/Debug/src/reg-base.o
                0x0000000008003e26                REG_CopySignedMbToApp
 .text.REG_CopySignedVarToMb
                0x0000000008003e3e       0xa6 obj/Debug/src/reg-base.o
                0x0000000008003e3e                REG_CopySignedVarToMb
 .text.REG_CopySignedVarToApp
                0x0000000008003ee4       0x58 obj/Debug/src/reg-base.o
                0x0000000008003ee4                REG_CopySignedVarToApp
 .text.REG_CopySigned
                0x0000000008003f3c       0x6e obj/Debug/src/reg-base.o
                0x0000000008003f3c                REG_CopySigned
 .text.REG_CopyFloatAppToMb
                0x0000000008003faa       0x66 obj/Debug/src/reg-base.o
                0x0000000008003faa                REG_CopyFloatAppToMb
 .text.REG_CopyFloatMbToVar
                0x0000000008004010       0x54 obj/Debug/src/reg-base.o
                0x0000000008004010                REG_CopyFloatMbToVar
 .text.REG_CopyFloatMbToApp
                0x0000000008004064       0x18 obj/Debug/src/reg-base.o
                0x0000000008004064                REG_CopyFloatMbToApp
 .text.REG_CopyFloatVarToMb
                0x000000000800407c       0x64 obj/Debug/src/reg-base.o
                0x000000000800407c                REG_CopyFloatVarToMb
 .text.REG_CopyFloatVarToApp
                0x00000000080040e0       0x28 obj/Debug/src/reg-base.o
                0x00000000080040e0                REG_CopyFloatVarToApp
 .text.REG_CopyFloat
                0x0000000008004108       0x6e obj/Debug/src/reg-base.o
                0x0000000008004108                REG_CopyFloat
 .text.REG_CopyDoubleAppToMb
                0x0000000008004176       0x6c obj/Debug/src/reg-base.o
                0x0000000008004176                REG_CopyDoubleAppToMb
 .text.REG_CopyDoubleMbToVar
                0x00000000080041e2       0x5e obj/Debug/src/reg-base.o
                0x00000000080041e2                REG_CopyDoubleMbToVar
 .text.REG_CopyDoubleMbToApp
                0x0000000008004240       0x18 obj/Debug/src/reg-base.o
                0x0000000008004240                REG_CopyDoubleMbToApp
 .text.REG_CopyDoubleVarToMb
                0x0000000008004258       0x6a obj/Debug/src/reg-base.o
                0x0000000008004258                REG_CopyDoubleVarToMb
 .text.REG_CopyDoubleVarToApp
                0x00000000080042c2       0x2c obj/Debug/src/reg-base.o
                0x00000000080042c2                REG_CopyDoubleVarToApp
 .text.REG_CopyDouble
                0x00000000080042ee       0x6e obj/Debug/src/reg-base.o
                0x00000000080042ee                REG_CopyDouble
 .text.REG_CopyReg
                0x000000000800435c       0x44 obj/Debug/src/reg-base.o
                0x000000000800435c                REG_CopyReg
 .text.REG_CopyRegByPos
                0x00000000080043a0       0x20 obj/Debug/src/reg-base.o
                0x00000000080043a0                REG_CopyRegByPos
 .text.REG_CopyRegs
                0x00000000080043c0       0x58 obj/Debug/src/reg-base.o
                0x00000000080043c0                REG_CopyRegs
 .text.REG_TestDataTablePos
                0x0000000008004418       0x54 obj/Debug/src/reg-base.o
                0x0000000008004418                REG_TestDataTablePos
 .text.REG_InitRegs
                0x000000000800446c      0x2a8 obj/Debug/src/reg-base.o
                0x000000000800446c                REG_InitRegs
 .text.REG_Clear
                0x0000000008004714       0x20 obj/Debug/src/reg-base.o
                0x0000000008004714                REG_Clear
 .text.REG_Init
                0x0000000008004734      0x57c obj/Debug/src/reg.o
                0x0000000008004734                REG_Init
 .text.REG_CopyMbToApp
                0x0000000008004cb0      0x132 obj/Debug/src/reg.o
                0x0000000008004cb0                REG_CopyMbToApp
 .text.REG_CopyAppToMb
                0x0000000008004de2       0xe2 obj/Debug/src/reg.o
                0x0000000008004de2                REG_CopyAppToMb
 .text.REG_SetDef
                0x0000000008004ec4      0x110 obj/Debug/src/reg.o
                0x0000000008004ec4                REG_SetDef
 .text.PlcDI_Init
                0x0000000008004fd4       0xa4 obj/Debug/src/stm32f1/di.o
                0x0000000008004fd4                PlcDI_Init
 .text.PlcDI_SendValue
                0x0000000008005078       0x4c obj/Debug/src/stm32f1/di.o
                0x0000000008005078                PlcDI_SendValue
 .text.EXTI9_5_IRQHandler
                0x00000000080050c4       0x8c obj/Debug/src/stm32f1/di.o
                0x00000000080050c4                EXTI9_5_IRQHandler
 .text.EXTI15_10_IRQHandler
                0x0000000008005150       0x44 obj/Debug/src/stm32f1/di.o
                0x0000000008005150                EXTI15_10_IRQHandler
 .text.PlcDO_Init
                0x0000000008005194       0x38 obj/Debug/src/stm32f1/do.o
                0x0000000008005194                PlcDO_Init
 .text.PlcDO_On
                0x00000000080051cc       0x14 obj/Debug/src/stm32f1/do.o
                0x00000000080051cc                PlcDO_On
 .text.PlcDO_Off
                0x00000000080051e0       0x14 obj/Debug/src/stm32f1/do.o
                0x00000000080051e0                PlcDO_Off
 .text.PlcDO_Set
                0x00000000080051f4       0x14 obj/Debug/src/stm32f1/do.o
                0x00000000080051f4                PlcDO_Set
 .text.Plc_SoftwareReset
                0x0000000008005208       0x18 obj/Debug/src/stm32f1/soft-reset.o
                0x0000000008005208                Plc_SoftwareReset
 .text.PlcSysClock_Init
                0x0000000008005220       0x8a obj/Debug/src/stm32f1/sysclock.o
                0x0000000008005220                PlcSysClock_Init
 *fill*         0x00000000080052aa        0x2 
 .text.PlcSysTick_Init
                0x00000000080052ac       0x40 obj/Debug/src/stm32f1/systick.o
                0x00000000080052ac                PlcSysTick_Init
 .text.PlcTim2_Start
                0x00000000080052ec       0x2c obj/Debug/src/stm32f1/tim2.o
                0x00000000080052ec                PlcTim2_Start
 .text.PlcTim2_Stop
                0x0000000008005318       0x2c obj/Debug/src/stm32f1/tim2.o
                0x0000000008005318                PlcTim2_Stop
 .text.PlcTim2_Init
                0x0000000008005344       0x5e obj/Debug/src/stm32f1/tim2.o
                0x0000000008005344                PlcTim2_Init
 *fill*         0x00000000080053a2        0x2 
 .text.PlcTim3_Init
                0x00000000080053a4       0x6c obj/Debug/src/stm32f1/tim3.o
                0x00000000080053a4                PlcTim3_Init
 .text.PlcUsart_SendByte
                0x0000000008005410       0x18 obj/Debug/src/stm32f1/usart.o
                0x0000000008005410                PlcUsart_SendByte
 .text.USART1_DisableNVIC
                0x0000000008005428       0x10 obj/Debug/src/stm32f1/usart1.o
 .text.USART1_EnableNVIC
                0x0000000008005438        0xc obj/Debug/src/stm32f1/usart1.o
 .text.PlcUsart1_Init
                0x0000000008005444       0xd8 obj/Debug/src/stm32f1/usart1.o
                0x0000000008005444                PlcUsart1_Init
 .text.USART1_IRQHandler
                0x000000000800551c       0x84 obj/Debug/src/stm32f1/usart1.o
                0x000000000800551c                USART1_IRQHandler
 .text.dbg_serial_write
                0x00000000080055a0       0x5c obj/Debug/src/stm32f1/usart1.o
                0x00000000080055a0                dbg_serial_write
 .text.dbg_serial_read
                0x00000000080055fc       0x34 obj/Debug/src/stm32f1/usart1.o
                0x00000000080055fc                dbg_serial_read
 .text.PlcUsart2_Init
                0x0000000008005630       0xec obj/Debug/src/stm32f1/usart2.o
                0x0000000008005630                PlcUsart2_Init
 .text.USART2_IRQHandler
                0x000000000800571c      0x154 obj/Debug/src/stm32f1/usart2.o
                0x000000000800571c                USART2_IRQHandler
 .text.PlcUsart3_Init
                0x0000000008005870       0x8c obj/Debug/src/stm32f1/usart3.o
                0x0000000008005870                PlcUsart3_Init
 .text.Type_GetWSz
                0x00000000080058fc       0x28 obj/Debug/src/type.o
                0x00000000080058fc                Type_GetWSz
 .text.Type_InitBytes
                0x0000000008005924       0x16 obj/Debug/src/type.o
                0x0000000008005924                Type_InitBytes
 .text.Type_InitWords
                0x000000000800593a       0x18 obj/Debug/src/type.o
                0x000000000800593a                Type_InitWords
 .text.Type_ReplaceWordBytes
                0x0000000008005952       0x12 obj/Debug/src/type.o
                0x0000000008005952                Type_ReplaceWordBytes
 .text.Type_OrderWordBytes
                0x0000000008005964       0x2a obj/Debug/src/type.o
                0x0000000008005964                Type_OrderWordBytes
 .text.Type_CopyWordsExt
                0x000000000800598e       0xfc obj/Debug/src/type.o
                0x000000000800598e                Type_CopyWordsExt
 .text.Type_CopyWords
                0x0000000008005a8a       0x1a obj/Debug/src/type.o
                0x0000000008005a8a                Type_CopyWords
 *fill*         0x0000000008005aa4        0x4 
 .text.ilog10   0x0000000008005aa8       0xb8 obj/Debug/src/xprintf.o
 .text.i10x     0x0000000008005b60       0x60 obj/Debug/src/xprintf.o
 .text.ftoa     0x0000000008005bc0      0x260 obj/Debug/src/xprintf.o
 .text.xfputc   0x0000000008005e20       0x24 obj/Debug/src/xprintf.o
                0x0000000008005e20                xfputc
 .text.xvfprintf
                0x0000000008005e44      0x3d0 obj/Debug/src/xprintf.o
 .text.xsprintfa
                0x0000000008006214       0x1c obj/Debug/src/xprintf.o
                0x0000000008006214                xsprintfa
 .text.PlcApp_Init
                0x0000000008006230       0x30 obj/Debug/system/beremiz/src/plc_app.o
                0x0000000008006230                PlcApp_Init
 .text.PlcApp_Start
                0x0000000008006260       0x20 obj/Debug/system/beremiz/src/plc_app.o
                0x0000000008006260                PlcApp_Start
 .text.PlcApp_Stop
                0x0000000008006280       0x1c obj/Debug/system/beremiz/src/plc_app.o
                0x0000000008006280                PlcApp_Stop
 .text.PlcApp_Run
                0x000000000800629c       0x14 obj/Debug/system/beremiz/src/plc_app.o
                0x000000000800629c                PlcApp_Run
 .text.PlcApp_TestLocVar
                0x00000000080062b0       0xa0 obj/Debug/system/beremiz/src/plc_app.o
                0x00000000080062b0                PlcApp_TestLocVar
 .text.dbg_fifo_flush
                0x0000000008006350        0xa obj/Debug/system/beremiz/src/plc_debug.o
                0x0000000008006350                dbg_fifo_flush
 .text.dbg_fifo_write_byte
                0x000000000800635a       0x30 obj/Debug/system/beremiz/src/plc_debug.o
                0x000000000800635a                dbg_fifo_write_byte
 .text.dbg_fifo_write
                0x000000000800638a       0x26 obj/Debug/system/beremiz/src/plc_debug.o
                0x000000000800638a                dbg_fifo_write
 .text.dbg_fifo_read_byte
                0x00000000080063b0       0x30 obj/Debug/system/beremiz/src/plc_debug.o
                0x00000000080063b0                dbg_fifo_read_byte
 .text.dbg_init
                0x00000000080063e0       0x10 obj/Debug/system/beremiz/src/plc_debug.o
                0x00000000080063e0                dbg_init
 .text.dbg_handler
                0x00000000080063f0      0x608 obj/Debug/system/beremiz/src/plc_debug.o
                0x00000000080063f0                dbg_handler
 .text.plc_check_code
                0x00000000080069f8       0x20 obj/Debug/system/beremiz/src/plc_glue_rte.o
 .text.plc_app_is_valid
                0x0000000008006a18      0x1f8 obj/Debug/system/beremiz/src/plc_glue_rte.o
                0x0000000008006a18                plc_app_is_valid
 .text.plc_app_cstratup
                0x0000000008006c10       0x54 obj/Debug/system/beremiz/src/plc_glue_rte.o
                0x0000000008006c10                plc_app_cstratup
 .text.pvPortMalloc
                0x0000000008006c64       0x60 obj/Debug/system/freertos/src/heap_1.o
                0x0000000008006c64                pvPortMalloc
 .text.vPortFree
                0x0000000008006cc4        0x2 obj/Debug/system/freertos/src/heap_1.o
                0x0000000008006cc4                vPortFree
 .text.vListInitialise
                0x0000000008006cc6       0x16 obj/Debug/system/freertos/src/list.o
                0x0000000008006cc6                vListInitialise
 .text.vListInitialiseItem
                0x0000000008006cdc        0x6 obj/Debug/system/freertos/src/list.o
                0x0000000008006cdc                vListInitialiseItem
 .text.vListInsertEnd
                0x0000000008006ce2       0x16 obj/Debug/system/freertos/src/list.o
                0x0000000008006ce2                vListInsertEnd
 .text.vListInsert
                0x0000000008006cf8       0x32 obj/Debug/system/freertos/src/list.o
                0x0000000008006cf8                vListInsert
 .text.uxListRemove
                0x0000000008006d2a       0x26 obj/Debug/system/freertos/src/list.o
                0x0000000008006d2a                uxListRemove
 .text.prvTaskExitError
                0x0000000008006d50       0x20 obj/Debug/system/freertos/src/port.o
 .text.prvPortStartFirstTask
                0x0000000008006d70       0x20 obj/Debug/system/freertos/src/port.o
 .text.pxPortInitialiseStack
                0x0000000008006d90       0x24 obj/Debug/system/freertos/src/port.o
                0x0000000008006d90                pxPortInitialiseStack
 *fill*         0x0000000008006db4        0xc 
 .text.SVC_Handler
                0x0000000008006dc0       0x24 obj/Debug/system/freertos/src/port.o
                0x0000000008006dc0                SVC_Handler
 .text.vPortEnterCritical
                0x0000000008006de4       0x20 obj/Debug/system/freertos/src/port.o
                0x0000000008006de4                vPortEnterCritical
 .text.vPortExitCritical
                0x0000000008006e04       0x14 obj/Debug/system/freertos/src/port.o
                0x0000000008006e04                vPortExitCritical
 *fill*         0x0000000008006e18        0x8 
 .text.PendSV_Handler
                0x0000000008006e20       0x44 obj/Debug/system/freertos/src/port.o
                0x0000000008006e20                PendSV_Handler
 .text.SysTick_Handler
                0x0000000008006e64       0x2c obj/Debug/system/freertos/src/port.o
                0x0000000008006e64                SysTick_Handler
 .text.vPortSetupTimerInterrupt
                0x0000000008006e90       0x18 obj/Debug/system/freertos/src/port.o
                0x0000000008006e90                vPortSetupTimerInterrupt
 .text.xPortStartScheduler
                0x0000000008006ea8       0x3c obj/Debug/system/freertos/src/port.o
                0x0000000008006ea8                xPortStartScheduler
 .text.prvGetDisinheritPriorityAfterTimeout
                0x0000000008006ee4       0x10 obj/Debug/system/freertos/src/queue.o
 .text.prvIsQueueFull
                0x0000000008006ef4       0x1e obj/Debug/system/freertos/src/queue.o
 .text.prvIsQueueEmpty
                0x0000000008006f12       0x1a obj/Debug/system/freertos/src/queue.o
 .text.prvCopyDataToQueue
                0x0000000008006f2c       0x76 obj/Debug/system/freertos/src/queue.o
 .text.prvNotifyQueueSetContainer
                0x0000000008006fa2       0x50 obj/Debug/system/freertos/src/queue.o
 .text.prvCopyDataFromQueue
                0x0000000008006ff2       0x24 obj/Debug/system/freertos/src/queue.o
 .text.prvUnlockQueue
                0x0000000008007016       0x82 obj/Debug/system/freertos/src/queue.o
 .text.xQueueGenericReset
                0x0000000008007098       0x70 obj/Debug/system/freertos/src/queue.o
                0x0000000008007098                xQueueGenericReset
 .text.prvInitialiseNewQueue
                0x0000000008007108       0x20 obj/Debug/system/freertos/src/queue.o
 .text.xQueueGenericCreate
                0x0000000008007128       0x2e obj/Debug/system/freertos/src/queue.o
                0x0000000008007128                xQueueGenericCreate
 .text.xQueueGenericSend
                0x0000000008007156      0x14a obj/Debug/system/freertos/src/queue.o
                0x0000000008007156                xQueueGenericSend
 .text.prvInitialiseMutex
                0x00000000080072a0       0x18 obj/Debug/system/freertos/src/queue.o
 .text.xQueueCreateMutex
                0x00000000080072b8       0x16 obj/Debug/system/freertos/src/queue.o
                0x00000000080072b8                xQueueCreateMutex
 .text.xQueueGenericSendFromISR
                0x00000000080072ce       0xa4 obj/Debug/system/freertos/src/queue.o
                0x00000000080072ce                xQueueGenericSendFromISR
 .text.xQueueReceive
                0x0000000008007372      0x110 obj/Debug/system/freertos/src/queue.o
                0x0000000008007372                xQueueReceive
 .text.xQueueSemaphoreTake
                0x0000000008007482      0x146 obj/Debug/system/freertos/src/queue.o
                0x0000000008007482                xQueueSemaphoreTake
 .text.vQueueWaitForMessageRestricted
                0x00000000080075c8       0x52 obj/Debug/system/freertos/src/queue.o
                0x00000000080075c8                vQueueWaitForMessageRestricted
 *fill*         0x000000000800761a        0x2 
 .text.prvIdleTask
                0x000000000800761c       0x24 obj/Debug/system/freertos/src/tasks.o
 .text.prvResetNextTaskUnblockTime
                0x0000000008007640       0x2c obj/Debug/system/freertos/src/tasks.o
 .text.prvInitialiseNewTask
                0x000000000800766c       0xb6 obj/Debug/system/freertos/src/tasks.o
 *fill*         0x0000000008007722        0x2 
 .text.prvInitialiseTaskLists
                0x0000000008007724       0x5c obj/Debug/system/freertos/src/tasks.o
 .text.prvAddNewTaskToReadyList
                0x0000000008007780       0xa8 obj/Debug/system/freertos/src/tasks.o
 .text.prvAddCurrentTaskToDelayedList
                0x0000000008007828       0x98 obj/Debug/system/freertos/src/tasks.o
 .text.xTaskCreate
                0x00000000080078c0       0x64 obj/Debug/system/freertos/src/tasks.o
                0x00000000080078c0                xTaskCreate
 .text.vTaskStartScheduler
                0x0000000008007924       0x6c obj/Debug/system/freertos/src/tasks.o
                0x0000000008007924                vTaskStartScheduler
 .text.vTaskSuspendAll
                0x0000000008007990       0x10 obj/Debug/system/freertos/src/tasks.o
                0x0000000008007990                vTaskSuspendAll
 .text.xTaskGetTickCount
                0x00000000080079a0        0xc obj/Debug/system/freertos/src/tasks.o
                0x00000000080079a0                xTaskGetTickCount
 .text.xTaskIncrementTick
                0x00000000080079ac       0xec obj/Debug/system/freertos/src/tasks.o
                0x00000000080079ac                xTaskIncrementTick
 .text.xTaskResumeAll
                0x0000000008007a98       0xe0 obj/Debug/system/freertos/src/tasks.o
                0x0000000008007a98                xTaskResumeAll
 .text.vTaskSwitchContext
                0x0000000008007b78       0x78 obj/Debug/system/freertos/src/tasks.o
                0x0000000008007b78                vTaskSwitchContext
 .text.vTaskPlaceOnEventList
                0x0000000008007bf0       0x1c obj/Debug/system/freertos/src/tasks.o
                0x0000000008007bf0                vTaskPlaceOnEventList
 .text.vTaskPlaceOnEventListRestricted
                0x0000000008007c0c       0x24 obj/Debug/system/freertos/src/tasks.o
                0x0000000008007c0c                vTaskPlaceOnEventListRestricted
 .text.xTaskRemoveFromEventList
                0x0000000008007c30       0x78 obj/Debug/system/freertos/src/tasks.o
                0x0000000008007c30                xTaskRemoveFromEventList
 .text.vTaskInternalSetTimeOutState
                0x0000000008007ca8       0x18 obj/Debug/system/freertos/src/tasks.o
                0x0000000008007ca8                vTaskInternalSetTimeOutState
 .text.xTaskCheckForTimeOut
                0x0000000008007cc0       0x5c obj/Debug/system/freertos/src/tasks.o
                0x0000000008007cc0                xTaskCheckForTimeOut
 .text.vTaskMissedYield
                0x0000000008007d1c        0xc obj/Debug/system/freertos/src/tasks.o
                0x0000000008007d1c                vTaskMissedYield
 .text.xTaskGetSchedulerState
                0x0000000008007d28       0x20 obj/Debug/system/freertos/src/tasks.o
                0x0000000008007d28                xTaskGetSchedulerState
 .text.xTaskPriorityInherit
                0x0000000008007d48       0xac obj/Debug/system/freertos/src/tasks.o
                0x0000000008007d48                xTaskPriorityInherit
 .text.xTaskPriorityDisinherit
                0x0000000008007df4       0x80 obj/Debug/system/freertos/src/tasks.o
                0x0000000008007df4                xTaskPriorityDisinherit
 .text.vTaskPriorityDisinheritAfterTimeout
                0x0000000008007e74       0x84 obj/Debug/system/freertos/src/tasks.o
                0x0000000008007e74                vTaskPriorityDisinheritAfterTimeout
 .text.pvTaskIncrementMutexHeldCount
                0x0000000008007ef8       0x1c obj/Debug/system/freertos/src/tasks.o
                0x0000000008007ef8                pvTaskIncrementMutexHeldCount
 .text.prvGetNextExpireTime
                0x0000000008007f14       0x20 obj/Debug/system/freertos/src/timers.o
 .text.prvInsertTimerInActiveList
                0x0000000008007f34       0x48 obj/Debug/system/freertos/src/timers.o
 .text.prvCheckForValidListAndQueue
                0x0000000008007f7c       0x50 obj/Debug/system/freertos/src/timers.o
 .text.prvInitialiseNewTimer
                0x0000000008007fcc       0x38 obj/Debug/system/freertos/src/timers.o
 .text.xTimerCreateTimerTask
                0x0000000008008004       0x3c obj/Debug/system/freertos/src/timers.o
                0x0000000008008004                xTimerCreateTimerTask
 .text.xTimerCreate
                0x0000000008008040       0x38 obj/Debug/system/freertos/src/timers.o
                0x0000000008008040                xTimerCreate
 .text.xTimerGenericCommand
                0x0000000008008078       0x58 obj/Debug/system/freertos/src/timers.o
                0x0000000008008078                xTimerGenericCommand
 .text.prvSwitchTimerLists
                0x00000000080080d0       0x68 obj/Debug/system/freertos/src/timers.o
 .text.prvSampleTimeNow
                0x0000000008008138       0x2c obj/Debug/system/freertos/src/timers.o
 .text.prvProcessExpiredTimer
                0x0000000008008164       0x58 obj/Debug/system/freertos/src/timers.o
 .text.prvProcessTimerOrBlockTask
                0x00000000080081bc       0x74 obj/Debug/system/freertos/src/timers.o
 .text.prvProcessReceivedCommands
                0x0000000008008230       0xd4 obj/Debug/system/freertos/src/timers.o
 .text.prvTimerTask
                0x0000000008008304       0x16 obj/Debug/system/freertos/src/timers.o
 *fill*         0x000000000800831a        0x2 
 .text.SetSysClockTo72
                0x000000000800831c       0xf0 obj/Debug/system/stm32f1/src/cmsis/system_stm32f10x.o
 .text.SetSysClock
                0x000000000800840c        0x8 obj/Debug/system/stm32f1/src/cmsis/system_stm32f10x.o
 .text.SystemInit
                0x0000000008008414       0x5c obj/Debug/system/stm32f1/src/cmsis/system_stm32f10x.o
                0x0000000008008414                SystemInit
 .text.SystemCoreClockUpdate
                0x0000000008008470       0xcc obj/Debug/system/stm32f1/src/cmsis/system_stm32f10x.o
                0x0000000008008470                SystemCoreClockUpdate
 .text.__initialize_hardware_early
                0x000000000800853c       0x18 obj/Debug/system/stm32f1/src/cortexm/_initialize_hardware.o
                0x000000000800853c                __initialize_hardware_early
 .text.__initialize_hardware
                0x0000000008008554        0x8 obj/Debug/system/stm32f1/src/cortexm/_initialize_hardware.o
                0x0000000008008554                __initialize_hardware
 .text._exit    0x000000000800855c        0x2 obj/Debug/system/stm32f1/src/newlib/_exit.o
                0x000000000800855c                _exit
 .text.abort    0x000000000800855e        0x8 obj/Debug/system/stm32f1/src/newlib/_exit.o
                0x000000000800855e                abort
 *fill*         0x0000000008008566        0x2 
 .text.__initialize_args
                0x0000000008008568       0x10 obj/Debug/system/stm32f1/src/newlib/_syscalls.o
                0x0000000008008568                __initialize_args
 .text.assert_failed
                0x0000000008008578        0x6 obj/Debug/system/stm32f1/src/newlib/assert.o
                0x0000000008008578                assert_failed
 *fill*         0x000000000800857e        0x2 
 .text.NVIC_PriorityGroupConfig
                0x0000000008008580       0x44 obj/Debug/system/stm32f1/src/stm32f1-stdperiph/misc.o
                0x0000000008008580                NVIC_PriorityGroupConfig
 .text.NVIC_Init
                0x00000000080085c4       0x98 obj/Debug/system/stm32f1/src/stm32f1-stdperiph/misc.o
                0x00000000080085c4                NVIC_Init
 .text.EXTI_Init
                0x000000000800865c       0xdc obj/Debug/system/stm32f1/src/stm32f1-stdperiph/stm32f10x_exti.o
                0x000000000800865c                EXTI_Init
 .text.EXTI_StructInit
                0x0000000008008738        0xe obj/Debug/system/stm32f1/src/stm32f1-stdperiph/stm32f10x_exti.o
                0x0000000008008738                EXTI_StructInit
 *fill*         0x0000000008008746        0x2 
 .text.EXTI_GetITStatus
                0x0000000008008748       0x98 obj/Debug/system/stm32f1/src/stm32f1-stdperiph/stm32f10x_exti.o
                0x0000000008008748                EXTI_GetITStatus
 .text.EXTI_ClearITPendingBit
                0x00000000080087e0       0x24 obj/Debug/system/stm32f1/src/stm32f1-stdperiph/stm32f10x_exti.o
                0x00000000080087e0                EXTI_ClearITPendingBit
 .text.GPIO_Init
                0x0000000008008804      0x13c obj/Debug/system/stm32f1/src/stm32f1-stdperiph/stm32f10x_gpio.o
                0x0000000008008804                GPIO_Init
 .text.GPIO_StructInit
                0x0000000008008940       0x10 obj/Debug/system/stm32f1/src/stm32f1-stdperiph/stm32f10x_gpio.o
                0x0000000008008940                GPIO_StructInit
 .text.GPIO_ReadInputDataBit
                0x0000000008008950       0xb8 obj/Debug/system/stm32f1/src/stm32f1-stdperiph/stm32f10x_gpio.o
                0x0000000008008950                GPIO_ReadInputDataBit
 .text.GPIO_SetBits
                0x0000000008008a08       0x60 obj/Debug/system/stm32f1/src/stm32f1-stdperiph/stm32f10x_gpio.o
                0x0000000008008a08                GPIO_SetBits
 .text.GPIO_ResetBits
                0x0000000008008a68       0x60 obj/Debug/system/stm32f1/src/stm32f1-stdperiph/stm32f10x_gpio.o
                0x0000000008008a68                GPIO_ResetBits
 .text.GPIO_EXTILineConfig
                0x0000000008008ac8       0x5c obj/Debug/system/stm32f1/src/stm32f1-stdperiph/stm32f10x_gpio.o
                0x0000000008008ac8                GPIO_EXTILineConfig
 .text.RCC_DeInit
                0x0000000008008b24       0x4c obj/Debug/system/stm32f1/src/stm32f1-stdperiph/stm32f10x_rcc.o
                0x0000000008008b24                RCC_DeInit
 .text.RCC_HSEConfig
                0x0000000008008b70       0x60 obj/Debug/system/stm32f1/src/stm32f1-stdperiph/stm32f10x_rcc.o
                0x0000000008008b70                RCC_HSEConfig
 .text.RCC_PLLConfig
                0x0000000008008bd0       0x68 obj/Debug/system/stm32f1/src/stm32f1-stdperiph/stm32f10x_rcc.o
                0x0000000008008bd0                RCC_PLLConfig
 .text.RCC_PLLCmd
                0x0000000008008c38       0x24 obj/Debug/system/stm32f1/src/stm32f1-stdperiph/stm32f10x_rcc.o
                0x0000000008008c38                RCC_PLLCmd
 .text.RCC_PREDIV1Config
                0x0000000008008c5c       0x48 obj/Debug/system/stm32f1/src/stm32f1-stdperiph/stm32f10x_rcc.o
                0x0000000008008c5c                RCC_PREDIV1Config
 .text.RCC_PREDIV2Config
                0x0000000008008ca4       0x64 obj/Debug/system/stm32f1/src/stm32f1-stdperiph/stm32f10x_rcc.o
                0x0000000008008ca4                RCC_PREDIV2Config
 .text.RCC_PLL2Config
                0x0000000008008d08       0x5c obj/Debug/system/stm32f1/src/stm32f1-stdperiph/stm32f10x_rcc.o
                0x0000000008008d08                RCC_PLL2Config
 .text.RCC_PLL2Cmd
                0x0000000008008d64       0x24 obj/Debug/system/stm32f1/src/stm32f1-stdperiph/stm32f10x_rcc.o
                0x0000000008008d64                RCC_PLL2Cmd
 .text.RCC_SYSCLKConfig
                0x0000000008008d88       0x2c obj/Debug/system/stm32f1/src/stm32f1-stdperiph/stm32f10x_rcc.o
                0x0000000008008d88                RCC_SYSCLKConfig
 .text.RCC_GetSYSCLKSource
                0x0000000008008db4       0x10 obj/Debug/system/stm32f1/src/stm32f1-stdperiph/stm32f10x_rcc.o
                0x0000000008008db4                RCC_GetSYSCLKSource
 .text.RCC_HCLKConfig
                0x0000000008008dc4       0x48 obj/Debug/system/stm32f1/src/stm32f1-stdperiph/stm32f10x_rcc.o
                0x0000000008008dc4                RCC_HCLKConfig
 .text.RCC_PCLK1Config
                0x0000000008008e0c       0x40 obj/Debug/system/stm32f1/src/stm32f1-stdperiph/stm32f10x_rcc.o
                0x0000000008008e0c                RCC_PCLK1Config
 .text.RCC_PCLK2Config
                0x0000000008008e4c       0x44 obj/Debug/system/stm32f1/src/stm32f1-stdperiph/stm32f10x_rcc.o
                0x0000000008008e4c                RCC_PCLK2Config
 .text.RCC_GetClocksFreq
                0x0000000008008e90       0xf4 obj/Debug/system/stm32f1/src/stm32f1-stdperiph/stm32f10x_rcc.o
                0x0000000008008e90                RCC_GetClocksFreq
 .text.RCC_APB2PeriphClockCmd
                0x0000000008008f84       0x4c obj/Debug/system/stm32f1/src/stm32f1-stdperiph/stm32f10x_rcc.o
                0x0000000008008f84                RCC_APB2PeriphClockCmd
 .text.RCC_APB1PeriphClockCmd
                0x0000000008008fd0       0x4c obj/Debug/system/stm32f1/src/stm32f1-stdperiph/stm32f10x_rcc.o
                0x0000000008008fd0                RCC_APB1PeriphClockCmd
 .text.RCC_GetFlagStatus
                0x000000000800901c       0x7c obj/Debug/system/stm32f1/src/stm32f1-stdperiph/stm32f10x_rcc.o
                0x000000000800901c                RCC_GetFlagStatus
 .text.RCC_WaitForHSEStartUp
                0x0000000008009098       0x30 obj/Debug/system/stm32f1/src/stm32f1-stdperiph/stm32f10x_rcc.o
                0x0000000008009098                RCC_WaitForHSEStartUp
 .text.TIM_TimeBaseInit
                0x00000000080090c8      0x160 obj/Debug/system/stm32f1/src/stm32f1-stdperiph/stm32f10x_tim.o
                0x00000000080090c8                TIM_TimeBaseInit
 .text.TIM_Cmd  0x0000000008009228       0xc8 obj/Debug/system/stm32f1/src/stm32f1-stdperiph/stm32f10x_tim.o
                0x0000000008009228                TIM_Cmd
 .text.TIM_ITConfig
                0x00000000080092f0       0xd8 obj/Debug/system/stm32f1/src/stm32f1-stdperiph/stm32f10x_tim.o
                0x00000000080092f0                TIM_ITConfig
 .text.TIM_SetCounter
                0x00000000080093c8       0xa0 obj/Debug/system/stm32f1/src/stm32f1-stdperiph/stm32f10x_tim.o
                0x00000000080093c8                TIM_SetCounter
 .text.TIM_GetITStatus
                0x0000000008009468       0xe0 obj/Debug/system/stm32f1/src/stm32f1-stdperiph/stm32f10x_tim.o
                0x0000000008009468                TIM_GetITStatus
 .text.TIM_ClearITPendingBit
                0x0000000008009548       0xb8 obj/Debug/system/stm32f1/src/stm32f1-stdperiph/stm32f10x_tim.o
                0x0000000008009548                TIM_ClearITPendingBit
 .text.USART_Init
                0x0000000008009600      0x1b8 obj/Debug/system/stm32f1/src/stm32f1-stdperiph/stm32f10x_usart.o
                0x0000000008009600                USART_Init
 .text.USART_StructInit
                0x00000000080097b8       0x16 obj/Debug/system/stm32f1/src/stm32f1-stdperiph/stm32f10x_usart.o
                0x00000000080097b8                USART_StructInit
 *fill*         0x00000000080097ce        0x2 
 .text.USART_Cmd
                0x00000000080097d0       0x6c obj/Debug/system/stm32f1/src/stm32f1-stdperiph/stm32f10x_usart.o
                0x00000000080097d0                USART_Cmd
 .text.USART_ITConfig
                0x000000000800983c       0xf4 obj/Debug/system/stm32f1/src/stm32f1-stdperiph/stm32f10x_usart.o
                0x000000000800983c                USART_ITConfig
 .text.USART_SendData
                0x0000000008009930       0x58 obj/Debug/system/stm32f1/src/stm32f1-stdperiph/stm32f10x_usart.o
                0x0000000008009930                USART_SendData
 .text.USART_ReceiveData
                0x0000000008009988       0x44 obj/Debug/system/stm32f1/src/stm32f1-stdperiph/stm32f10x_usart.o
                0x0000000008009988                USART_ReceiveData
 .text.USART_GetFlagStatus
                0x00000000080099cc       0xac obj/Debug/system/stm32f1/src/stm32f1-stdperiph/stm32f10x_usart.o
                0x00000000080099cc                USART_GetFlagStatus
 .text.USART_GetITStatus
                0x0000000008009a78      0x104 obj/Debug/system/stm32f1/src/stm32f1-stdperiph/stm32f10x_usart.o
                0x0000000008009a78                USART_GetITStatus
 .text.USART_ClearITPendingBit
                0x0000000008009b7c       0xa4 obj/Debug/system/stm32f1/src/stm32f1-stdperiph/stm32f10x_usart.o
                0x0000000008009b7c                USART_ClearITPendingBit
 .text          0x0000000008009c20      0x378 /opt/tools/bin/../lib/gcc/arm-none-eabi/10.3.1/thumb/v7-m/nofp/libgcc.a(_arm_addsubdf3.o)
                0x0000000008009c20                __aeabi_drsub
                0x0000000008009c28                __aeabi_dsub
                0x0000000008009c28                __subdf3
                0x0000000008009c2c                __adddf3
                0x0000000008009c2c                __aeabi_dadd
                0x0000000008009ea4                __aeabi_ui2d
                0x0000000008009ea4                __floatunsidf
                0x0000000008009ec4                __floatsidf
                0x0000000008009ec4                __aeabi_i2d
                0x0000000008009ee8                __extendsfdf2
                0x0000000008009ee8                __aeabi_f2d
                0x0000000008009f2c                __aeabi_ul2d
                0x0000000008009f2c                __floatundidf
                0x0000000008009f3c                __floatdidf
                0x0000000008009f3c                __aeabi_l2d
 .text          0x0000000008009f98      0x424 /opt/tools/bin/../lib/gcc/arm-none-eabi/10.3.1/thumb/v7-m/nofp/libgcc.a(_arm_muldivdf3.o)
                0x0000000008009f98                __aeabi_dmul
                0x0000000008009f98                __muldf3
                0x000000000800a1ec                __aeabi_ddiv
                0x000000000800a1ec                __divdf3
 .text          0x000000000800a3bc      0x110 /opt/tools/bin/../lib/gcc/arm-none-eabi/10.3.1/thumb/v7-m/nofp/libgcc.a(_arm_cmpdf2.o)
                0x000000000800a3bc                __gtdf2
                0x000000000800a3bc                __gedf2
                0x000000000800a3c4                __ltdf2
                0x000000000800a3c4                __ledf2
                0x000000000800a3cc                __cmpdf2
                0x000000000800a3cc                __eqdf2
                0x000000000800a3cc                __nedf2
                0x000000000800a448                __aeabi_cdrcmple
                0x000000000800a458                __aeabi_cdcmple
                0x000000000800a458                __aeabi_cdcmpeq
                0x000000000800a468                __aeabi_dcmpeq
                0x000000000800a47c                __aeabi_dcmplt
                0x000000000800a490                __aeabi_dcmple
                0x000000000800a4a4                __aeabi_dcmpge
                0x000000000800a4b8                __aeabi_dcmpgt
 .text          0x000000000800a4cc       0x2c /opt/tools/bin/../lib/gcc/arm-none-eabi/10.3.1/thumb/v7-m/nofp/libgcc.a(_arm_unorddf2.o)
                0x000000000800a4cc                __aeabi_dcmpun
                0x000000000800a4cc                __unorddf2
 .text          0x000000000800a4f8       0x50 /opt/tools/bin/../lib/gcc/arm-none-eabi/10.3.1/thumb/v7-m/nofp/libgcc.a(_arm_fixdfsi.o)
                0x000000000800a4f8                __fixdfsi
                0x000000000800a4f8                __aeabi_d2iz
 .text          0x000000000800a548       0x40 /opt/tools/bin/../lib/gcc/arm-none-eabi/10.3.1/thumb/v7-m/nofp/libgcc.a(_arm_fixunsdfsi.o)
                0x000000000800a548                __fixunsdfsi
                0x000000000800a548                __aeabi_d2uiz
 .text          0x000000000800a588      0x21c /opt/tools/bin/../lib/gcc/arm-none-eabi/10.3.1/thumb/v7-m/nofp/libgcc.a(_arm_addsubsf3.o)
                0x000000000800a588                __aeabi_frsub
                0x000000000800a590                __subsf3
                0x000000000800a590                __aeabi_fsub
                0x000000000800a594                __aeabi_fadd
                0x000000000800a594                __addsf3
                0x000000000800a6f4                __aeabi_ui2f
                0x000000000800a6f4                __floatunsisf
                0x000000000800a6fc                __aeabi_i2f
                0x000000000800a6fc                __floatsisf
                0x000000000800a718                __floatundisf
                0x000000000800a718                __aeabi_ul2f
                0x000000000800a728                __floatdisf
                0x000000000800a728                __aeabi_l2f
 .text          0x000000000800a7a4      0x2a0 /opt/tools/bin/../lib/gcc/arm-none-eabi/10.3.1/thumb/v7-m/nofp/libgcc.a(_arm_muldivsf3.o)
                0x000000000800a7a4                __mulsf3
                0x000000000800a7a4                __aeabi_fmul
                0x000000000800a90c                __divsf3
                0x000000000800a90c                __aeabi_fdiv
 .text          0x000000000800aa44       0xec /opt/tools/bin/../lib/gcc/arm-none-eabi/10.3.1/thumb/v7-m/nofp/libgcc.a(_arm_cmpsf2.o)
                0x000000000800aa44                __gtsf2
                0x000000000800aa44                __gesf2
                0x000000000800aa4c                __lesf2
                0x000000000800aa4c                __ltsf2
                0x000000000800aa54                __nesf2
                0x000000000800aa54                __eqsf2
                0x000000000800aa54                __cmpsf2
                0x000000000800aab4                __aeabi_cfrcmple
                0x000000000800aabc                __aeabi_cfcmple
                0x000000000800aabc                __aeabi_cfcmpeq
                0x000000000800aacc                __aeabi_fcmpeq
                0x000000000800aae0                __aeabi_fcmplt
                0x000000000800aaf4                __aeabi_fcmple
                0x000000000800ab08                __aeabi_fcmpge
                0x000000000800ab1c                __aeabi_fcmpgt
 .text          0x000000000800ab30       0x40 /opt/tools/bin/../lib/gcc/arm-none-eabi/10.3.1/thumb/v7-m/nofp/libgcc.a(_arm_fixunssfsi.o)
                0x000000000800ab30                __aeabi_f2uiz
                0x000000000800ab30                __fixunssfsi
 .text          0x000000000800ab70       0x30 /opt/tools/bin/../lib/gcc/arm-none-eabi/10.3.1/thumb/v7-m/nofp/libgcc.a(_aeabi_uldivmod.o)
                0x000000000800ab70                __aeabi_uldivmod
 .text.__fixunssfdi
                0x000000000800aba0       0x40 /opt/tools/bin/../lib/gcc/arm-none-eabi/10.3.1/thumb/v7-m/nofp/libgcc.a(_fixunssfdi.o)
                0x000000000800aba0                __aeabi_f2ulz
                0x000000000800aba0                __fixunssfdi
 .text.__udivmoddi4
                0x000000000800abe0      0x2d4 /opt/tools/bin/../lib/gcc/arm-none-eabi/10.3.1/thumb/v7-m/nofp/libgcc.a(_udivmoddi4.o)
                0x000000000800abe0                __udivmoddi4
 .text          0x000000000800aeb4        0x4 /opt/tools/bin/../lib/gcc/arm-none-eabi/10.3.1/thumb/v7-m/nofp/libgcc.a(_dvmd_tls.o)
                0x000000000800aeb4                __aeabi_ldiv0
                0x000000000800aeb4                __aeabi_idiv0
 .text          0x000000000800aeb8       0xec /opt/tools/bin/../lib/gcc/arm-none-eabi/10.3.1/../../../../arm-none-eabi/lib/thumb/v7-m/nofp/libc.a(lib_a-memcpy.o)
                0x000000000800aeb8                memcpy
 .text.strlen   0x000000000800afa4       0x5c /opt/tools/bin/../lib/gcc/arm-none-eabi/10.3.1/../../../../arm-none-eabi/lib/thumb/v7-m/nofp/libc.a(lib_a-strlen-stub.o)
                0x000000000800afa4                strlen
 *(.rodata .rodata.* .constdata .constdata.*)
 .rodata.RTOS_Error.str1.4
                0x000000000800b000       0xe3 obj/Debug/src/freertos/rtos-error.o
 *fill*         0x000000000800b0e3        0x1 
 .rodata.RTOS_TaskApp_InitTimApp.str1.4
                0x000000000800b0e4       0x10 obj/Debug/src/freertos/rtos-task-app.o
 .rodata.RTOS_TaskApp.str1.4
                0x000000000800b0f4       0x4c obj/Debug/src/freertos/rtos-task-app.o
 .rodata.main.str1.4
                0x000000000800b140      0x106 obj/Debug/src/main.o
 *fill*         0x000000000800b246        0x2 
 .rodata.REG_InitRegs.str1.4
                0x000000000800b248       0xb4 obj/Debug/src/reg-base.o
                                         0xb8 (size before relaxing)
 .rodata.REG_Init.str1.4
                0x000000000800b2fc       0x2b obj/Debug/src/reg.o
 *fill*         0x000000000800b327        0x1 
 .rodata.ftoa.str1.4
                0x000000000800b328        0xc obj/Debug/src/xprintf.o
 .rodata.xvfprintf.str1.4
                0x000000000800b334        0xc obj/Debug/src/xprintf.o
                                          0x1 (size before relaxing)
 .rodata.PlcApp_Init.str1.4
                0x000000000800b334       0x20 obj/Debug/system/beremiz/src/plc_app.o
 .rodata.vTaskStartScheduler.str1.4
                0x000000000800b354        0x5 obj/Debug/system/freertos/src/tasks.o
 *fill*         0x000000000800b359        0x3 
 .rodata.xTimerCreateTimerTask.str1.4
                0x000000000800b35c        0x8 obj/Debug/system/freertos/src/timers.o
 .rodata.NVIC_PriorityGroupConfig.str1.4
                0x000000000800b364       0x2c obj/Debug/system/stm32f1/src/stm32f1-stdperiph/misc.o
 .rodata.EXTI_Init.str1.4
                0x000000000800b390       0x36 obj/Debug/system/stm32f1/src/stm32f1-stdperiph/stm32f10x_exti.o
 *fill*         0x000000000800b3c6        0x2 
 .rodata.GPIO_DeInit.str1.4
                0x000000000800b3c8       0x36 obj/Debug/system/stm32f1/src/stm32f1-stdperiph/stm32f10x_gpio.o
 *fill*         0x000000000800b3fe        0x2 
 .rodata.RCC_HSEConfig.str1.4
                0x000000000800b400       0x35 obj/Debug/system/stm32f1/src/stm32f1-stdperiph/stm32f10x_rcc.o
 *fill*         0x000000000800b435        0x3 
 .rodata.TIM_DeInit.str1.4
                0x000000000800b438       0x35 obj/Debug/system/stm32f1/src/stm32f1-stdperiph/stm32f10x_tim.o
 *fill*         0x000000000800b46d        0x3 
 .rodata.USART_DeInit.str1.4
                0x000000000800b470       0x37 obj/Debug/system/stm32f1/src/stm32f1-stdperiph/stm32f10x_usart.o
 *(vtable)
 *(.eh_frame*)
 *(.glue_7)
 .glue_7        0x000000000800b4a7        0x0 linker stubs
 *(.glue_7t)
 .glue_7t       0x000000000800b4a7        0x0 linker stubs

.vfp11_veneer   0x000000000800b4a8        0x0
 .vfp11_veneer  0x000000000800b4a8        0x0 linker stubs

.v4_bx          0x000000000800b4a8        0x0
 .v4_bx         0x000000000800b4a8        0x0 linker stubs

.iplt           0x000000000800b4a8        0x0
 .iplt          0x000000000800b4a8        0x0 obj/Debug/src/beremiz/app-di.o

.ARM.extab
 *(.ARM.extab* .gnu.linkonce.armextab.*)
                0x000000000800b4a8                . = ALIGN (0x4)
                0x000000000800b4a8                __exidx_start = .

.ARM.exidx      0x000000000800b4a8        0x8
 *(.ARM.exidx* .gnu.linkonce.armexidx.*)
 .ARM.exidx.text.__udivmoddi4
                0x000000000800b4a8        0x8 /opt/tools/bin/../lib/gcc/arm-none-eabi/10.3.1/thumb/v7-m/nofp/libgcc.a(_udivmoddi4.o)
                0x000000000800b4b0                __exidx_end = .

.rel.dyn        0x000000000800b4b0        0x0
 .rel.iplt      0x000000000800b4b0        0x0 obj/Debug/src/beremiz/app-di.o
                0x000000000800b4b0                . = ALIGN (0x4)
                0x000000000800b4b0                _etext = .
                0x000000000800b4b0                __etext = .

.data_CCMRAM    0x0000000000000000        0x0 load address 0x000000000800b4b0
 FILL mask 0xff
 *(.data.CCMRAM .data.CCMRAM.*)
                0x0000000000000000                . = ALIGN (0x4)
                0x000000000800b4b0                _sidata = LOADADDR (.data)

.data           0x0000000020000000       0x80 load address 0x000000000800b4b0
 FILL mask 0xff
                0x0000000020000000                _sdata = .
                0x0000000020000000                __data_start__ = .
 *(.data_begin .data_begin.*)
 .data_begin    0x0000000020000000        0x4 obj/Debug/system/stm32f1/src/newlib/_startup.o
 *(.data .data.*)
 .data.PLC_DI_PINS
                0x0000000020000004       0x20 obj/Debug/src/freertos/rtos-task-di.o
 .data.PLC_DO_PINS
                0x0000000020000024       0x20 obj/Debug/src/freertos/rtos-task-do.o
 .data.PLC_APP_STATE
                0x0000000020000044        0x1 obj/Debug/system/beremiz/src/plc_app.o
                0x0000000020000044                PLC_APP_STATE
 *fill*         0x0000000020000045        0x3 ff
 .data.uxCriticalNesting
                0x0000000020000048        0x4 obj/Debug/system/freertos/src/port.o
 .data.AHBPrescTable
                0x000000002000004c       0x10 obj/Debug/system/stm32f1/src/cmsis/system_stm32f10x.o
                0x000000002000004c                AHBPrescTable
 .data.SystemCoreClock
                0x000000002000005c        0x4 obj/Debug/system/stm32f1/src/cmsis/system_stm32f10x.o
                0x000000002000005c                SystemCoreClock
 .data.argv.1   0x0000000020000060        0x8 obj/Debug/system/stm32f1/src/newlib/_syscalls.o
 .data.ADCPrescTable
                0x0000000020000068        0x4 obj/Debug/system/stm32f1/src/stm32f1-stdperiph/stm32f10x_rcc.o
 .data.APBAHBPrescTable
                0x000000002000006c       0x10 obj/Debug/system/stm32f1/src/stm32f1-stdperiph/stm32f10x_rcc.o
 *(.data_end .data_end.*)
 .data_end      0x000000002000007c        0x4 obj/Debug/system/stm32f1/src/newlib/_startup.o
                0x0000000020000080                . = ALIGN (0x4)
                0x0000000020000080                _edata = .
                0x0000000020000080                __data_end__ = .

.igot.plt       0x0000000020000080        0x0 load address 0x000000000800b530
 .igot.plt      0x0000000020000080        0x0 obj/Debug/src/beremiz/app-di.o

.bss_CCMRAM     0x0000000000000000        0x0
 *(.bss.CCMRAM .bss.CCMRAM.*)

.bss            0x0000000020000080     0xb4ec
                0x0000000020000080                __bss_start__ = .
                0x0000000020000080                _sbss = .
 *(.bss_begin .bss_begin.*)
 .bss_begin     0x0000000020000080        0x4 obj/Debug/system/stm32f1/src/newlib/_startup.o
 *(.bss .bss.*)
 .bss.RTOS_ERR_FIXED
                0x0000000020000084        0x1 obj/Debug/src/freertos/rtos-error.o
 *fill*         0x0000000020000085        0x3 
 .bss.PLC_DI    0x0000000020000088       0x60 obj/Debug/src/freertos/rtos-task-di.o
 .bss.PLC_DI_TIM_TACH_STATUS
                0x00000000200000e8        0x1 obj/Debug/src/freertos/rtos-task-di.o
 *fill*         0x00000000200000e9        0x7 
 .bss.PLC_DO    0x00000000200000f0       0x80 obj/Debug/src/freertos/rtos-task-do.o
 .bss.PLC_DO_PWM
                0x0000000020000170       0x40 obj/Debug/src/freertos/rtos-task-do.o
 .bss.DEBUG_LOG_BUFF
                0x00000000200001b0       0x64 obj/Debug/src/freertos/rtos-task-log.o
 .bss.RTOS_TASK_LOG_STARTED
                0x0000000020000214        0x1 obj/Debug/src/freertos/rtos-task-log.o
                0x0000000020000214                RTOS_TASK_LOG_STARTED
 *fill*         0x0000000020000215        0x3 
 .bss.plc_sys_timer
                0x0000000020000218        0x8 obj/Debug/src/freertos/rtos-tim-app.o
                0x0000000020000218                plc_sys_timer
 .bss.RTOS_MTX_Di
                0x0000000020000220        0x4 obj/Debug/src/freertos/rtos.o
                0x0000000020000220                RTOS_MTX_Di
 .bss.RTOS_MTX_Log
                0x0000000020000224        0x4 obj/Debug/src/freertos/rtos.o
                0x0000000020000224                RTOS_MTX_Log
 .bss.RTOS_MTX_MbTables
                0x0000000020000228        0x4 obj/Debug/src/freertos/rtos.o
                0x0000000020000228                RTOS_MTX_MbTables
 .bss.RTOS_Q_DataDi
                0x000000002000022c        0x4 obj/Debug/src/freertos/rtos.o
                0x000000002000022c                RTOS_Q_DataDi
 .bss.RTOS_Q_DataDo
                0x0000000020000230        0x4 obj/Debug/src/freertos/rtos.o
                0x0000000020000230                RTOS_Q_DataDo
 .bss.RTOS_Q_DataRegMonitor
                0x0000000020000234        0x4 obj/Debug/src/freertos/rtos.o
                0x0000000020000234                RTOS_Q_DataRegMonitor
 .bss.RTOS_Q_DiIrq
                0x0000000020000238        0x4 obj/Debug/src/freertos/rtos.o
                0x0000000020000238                RTOS_Q_DiIrq
 .bss.RTOS_Q_DiSet
                0x000000002000023c        0x4 obj/Debug/src/freertos/rtos.o
                0x000000002000023c                RTOS_Q_DiSet
 .bss.RTOS_Q_DoSet
                0x0000000020000240        0x4 obj/Debug/src/freertos/rtos.o
                0x0000000020000240                RTOS_Q_DoSet
 .bss.RTOS_Q_Log
                0x0000000020000244        0x4 obj/Debug/src/freertos/rtos.o
                0x0000000020000244                RTOS_Q_Log
 .bss.RTOS_Q_MbRtuRx
                0x0000000020000248        0x4 obj/Debug/src/freertos/rtos.o
                0x0000000020000248                RTOS_Q_MbRtuRx
 .bss.RTOS_Q_MbRtuSet
                0x000000002000024c        0x4 obj/Debug/src/freertos/rtos.o
                0x000000002000024c                RTOS_Q_MbRtuSet
 .bss.RTOS_SEMA_App
                0x0000000020000250        0x4 obj/Debug/src/freertos/rtos.o
                0x0000000020000250                RTOS_SEMA_App
 .bss.RTOS_TIM_App
                0x0000000020000254        0x4 obj/Debug/src/freertos/rtos.o
                0x0000000020000254                RTOS_TIM_App
 .bss.RTOS_TIM_DiTach
                0x0000000020000258        0x4 obj/Debug/src/freertos/rtos.o
                0x0000000020000258                RTOS_TIM_DiTach
 .bss.MBRTU_COM
                0x000000002000025c      0x234 obj/Debug/src/mbrtu.o
                0x000000002000025c                MBRTU_COM
 .bss.PLC_SYS_STAT1
                0x0000000020000490        0x2 obj/Debug/src/reg-base.o
                0x0000000020000490                PLC_SYS_STAT1
 *fill*         0x0000000020000492        0x2 
 .bss.REGS      0x0000000020000494      0xb40 obj/Debug/src/reg-base.o
 .bss.REGS_DATA_BOOL
                0x0000000020000fd4       0x3c obj/Debug/src/reg-base.o
 .bss.REGS_DATA_NUMB
                0x0000000020001010       0x98 obj/Debug/src/reg-base.o
 .bss.PLC_DO_POSTPONED
                0x00000000200010a8        0x1 obj/Debug/src/stm32f1/do.o
                0x00000000200010a8                PLC_DO_POSTPONED
 .bss.PlcTim2Status
                0x00000000200010a9        0x1 obj/Debug/src/stm32f1/tim2.o
 .bss.usart_data
                0x00000000200010aa        0x1 obj/Debug/src/stm32f1/usart1.o
 *fill*         0x00000000200010ab        0x1 
 .bss.usart_rx_buf
                0x00000000200010ac       0x86 obj/Debug/src/stm32f1/usart1.o
 *fill*         0x0000000020001132        0x2 
 .bss.usart_tx_buf
                0x0000000020001134       0x86 obj/Debug/src/stm32f1/usart1.o
 *fill*         0x00000000200011ba        0x2 
 .bss.RTOS_Usart2ISR_TaskWoken
                0x00000000200011bc        0x4 obj/Debug/src/stm32f1/usart2.o
 .bss.strptr    0x00000000200011c0        0x4 obj/Debug/src/xprintf.o
 .bss.PLC_APP_CURR
                0x00000000200011c4        0x4 obj/Debug/system/beremiz/src/plc_app.o
                0x00000000200011c4                PLC_APP_CURR
 .bss.plc_dbg_ctrl
                0x00000000200011c8      0x230 obj/Debug/system/beremiz/src/plc_debug.o
                0x00000000200011c8                plc_dbg_ctrl
 .bss.pucAlignedHeap.0
                0x00000000200013f8        0x4 obj/Debug/system/freertos/src/heap_1.o
 .bss.ucHeap    0x00000000200013fc     0xa000 obj/Debug/system/freertos/src/heap_1.o
 .bss.xNextFreeByte
                0x000000002000b3fc        0x4 obj/Debug/system/freertos/src/heap_1.o
 .bss.pxCurrentTCB
                0x000000002000b400        0x4 obj/Debug/system/freertos/src/tasks.o
                0x000000002000b400                pxCurrentTCB
 .bss.pxDelayedTaskList
                0x000000002000b404        0x4 obj/Debug/system/freertos/src/tasks.o
 .bss.pxOverflowDelayedTaskList
                0x000000002000b408        0x4 obj/Debug/system/freertos/src/tasks.o
 .bss.pxReadyTasksLists
                0x000000002000b40c       0xa0 obj/Debug/system/freertos/src/tasks.o
 .bss.uxCurrentNumberOfTasks
                0x000000002000b4ac        0x4 obj/Debug/system/freertos/src/tasks.o
 .bss.uxSchedulerSuspended
                0x000000002000b4b0        0x4 obj/Debug/system/freertos/src/tasks.o
 .bss.uxTaskNumber
                0x000000002000b4b4        0x4 obj/Debug/system/freertos/src/tasks.o
 .bss.uxTopReadyPriority
                0x000000002000b4b8        0x4 obj/Debug/system/freertos/src/tasks.o
 .bss.xDelayedTaskList1
                0x000000002000b4bc       0x14 obj/Debug/system/freertos/src/tasks.o
 .bss.xDelayedTaskList2
                0x000000002000b4d0       0x14 obj/Debug/system/freertos/src/tasks.o
 .bss.xIdleTaskHandle
                0x000000002000b4e4        0x4 obj/Debug/system/freertos/src/tasks.o
 .bss.xNextTaskUnblockTime
                0x000000002000b4e8        0x4 obj/Debug/system/freertos/src/tasks.o
 .bss.xNumOfOverflows
                0x000000002000b4ec        0x4 obj/Debug/system/freertos/src/tasks.o
 .bss.xPendedTicks
                0x000000002000b4f0        0x4 obj/Debug/system/freertos/src/tasks.o
 .bss.xPendingReadyList
                0x000000002000b4f4       0x14 obj/Debug/system/freertos/src/tasks.o
 .bss.xSchedulerRunning
                0x000000002000b508        0x4 obj/Debug/system/freertos/src/tasks.o
 .bss.xSuspendedTaskList
                0x000000002000b50c       0x14 obj/Debug/system/freertos/src/tasks.o
 .bss.xTickCount
                0x000000002000b520        0x4 obj/Debug/system/freertos/src/tasks.o
 .bss.xYieldPending
                0x000000002000b524        0x4 obj/Debug/system/freertos/src/tasks.o
 .bss.pxCurrentTimerList
                0x000000002000b528        0x4 obj/Debug/system/freertos/src/timers.o
 .bss.pxOverflowTimerList
                0x000000002000b52c        0x4 obj/Debug/system/freertos/src/timers.o
 .bss.xActiveTimerList1
                0x000000002000b530       0x14 obj/Debug/system/freertos/src/timers.o
 .bss.xActiveTimerList2
                0x000000002000b544       0x14 obj/Debug/system/freertos/src/timers.o
 .bss.xLastTime.0
                0x000000002000b558        0x4 obj/Debug/system/freertos/src/timers.o
 .bss.xTimerQueue
                0x000000002000b55c        0x4 obj/Debug/system/freertos/src/timers.o
 .bss.xTimerTaskHandle
                0x000000002000b560        0x4 obj/Debug/system/freertos/src/timers.o
 .bss.name.0    0x000000002000b564        0x1 obj/Debug/system/stm32f1/src/newlib/_syscalls.o
 *(COMMON)
 *(.bss_end .bss_end.*)
 *fill*         0x000000002000b565        0x3 
 .bss_end       0x000000002000b568        0x4 obj/Debug/system/stm32f1/src/newlib/_startup.o
                0x000000002000b56c                . = ALIGN (0x4)
                0x000000002000b56c                __bss_end__ = .
                0x000000002000b56c                _ebss = .

.noinit_CCMRAM
 *(.noinit.CCMRAM .noinit.CCMRAM.*)

.noinit         0x000000002000b56c        0x0
                0x000000002000b56c                _noinit = .
 *(.noinit .noinit.*)
                0x000000002000b56c                . = ALIGN (0x4)
                0x000000002000b56c                _end_noinit = .
                [!provide]                        PROVIDE (end = _end_noinit)
                [!provide]                        PROVIDE (_end = _end_noinit)
                [!provide]                        PROVIDE (__end = _end_noinit)
                [!provide]                        PROVIDE (__end__ = _end_noinit)

._check_stack   0x000000002000b56c      0x100
                0x000000002000b66c                . = (. + _Minimum_Stack_Size)
 *fill*         0x000000002000b56c      0x100 

.b1text
 *(.b1text)
 *(.b1rodata)
 *(.b1rodata.*)

.eb0text
 *(.eb0text)
 *(.eb0rodata)
 *(.eb0rodata.*)

.eb1text
 *(.eb1text)
 *(.eb1rodata)
 *(.eb1rodata.*)

.eb2text
 *(.eb2text)
 *(.eb2rodata)
 *(.eb2rodata.*)

.eb3text
 *(.eb3text)
 *(.eb3rodata)
 *(.eb3rodata.*)

.stab
 *(.stab)

.stabstr
 *(.stabstr)

.stab.excl
 *(.stab.excl)

.stab.exclstr
 *(.stab.exclstr)

.stab.index
 *(.stab.index)

.stab.indexstr
 *(.stab.indexstr)

.comment        0x0000000000000000       0x5d
 *(.comment)
 .comment       0x0000000000000000       0x5d obj/Debug/src/beremiz/app-di.o
                                         0x5e (size before relaxing)
 .comment       0x000000000000005d       0x5e obj/Debug/src/beremiz/app-do.o
 .comment       0x000000000000005d       0x5e obj/Debug/src/beremiz/app-sys.o
 .comment       0x000000000000005d       0x5e obj/Debug/src/beremiz/app.o
 .comment       0x000000000000005d       0x5e obj/Debug/src/freertos/rtos-error.o
 .comment       0x000000000000005d       0x5e obj/Debug/src/freertos/rtos-task-app.o
 .comment       0x000000000000005d       0x5e obj/Debug/src/freertos/rtos-task-data.o
 .comment       0x000000000000005d       0x5e obj/Debug/src/freertos/rtos-task-di.o
 .comment       0x000000000000005d       0x5e obj/Debug/src/freertos/rtos-task-do.o
 .comment       0x000000000000005d       0x5e obj/Debug/src/freertos/rtos-task-log.o
 .comment       0x000000000000005d       0x5e obj/Debug/src/freertos/rtos-task-mbrtu.o
 .comment       0x000000000000005d       0x5e obj/Debug/src/freertos/rtos-tim-app.o
 .comment       0x000000000000005d       0x5e obj/Debug/src/freertos/rtos.o
 .comment       0x000000000000005d       0x5e obj/Debug/src/main.o
 .comment       0x000000000000005d       0x5e obj/Debug/src/mbrtu.o
 .comment       0x000000000000005d       0x5e obj/Debug/src/reg-base.o
 .comment       0x000000000000005d       0x5e obj/Debug/src/reg.o
 .comment       0x000000000000005d       0x5e obj/Debug/src/stm32f1/di.o
 .comment       0x000000000000005d       0x5e obj/Debug/src/stm32f1/do.o
 .comment       0x000000000000005d       0x5e obj/Debug/src/stm32f1/soft-reset.o
 .comment       0x000000000000005d       0x5e obj/Debug/src/stm32f1/sysclock.o
 .comment       0x000000000000005d       0x5e obj/Debug/src/stm32f1/systick.o
 .comment       0x000000000000005d       0x5e obj/Debug/src/stm32f1/tim2.o
 .comment       0x000000000000005d       0x5e obj/Debug/src/stm32f1/tim3.o
 .comment       0x000000000000005d       0x5e obj/Debug/src/stm32f1/usart.o
 .comment       0x000000000000005d       0x5e obj/Debug/src/stm32f1/usart1.o
 .comment       0x000000000000005d       0x5e obj/Debug/src/stm32f1/usart2.o
 .comment       0x000000000000005d       0x5e obj/Debug/src/stm32f1/usart3.o
 .comment       0x000000000000005d       0x5e obj/Debug/src/type.o
 .comment       0x000000000000005d       0x5e obj/Debug/src/xprintf.o
 .comment       0x000000000000005d       0x5e obj/Debug/system/beremiz/src/plc_app.o
 .comment       0x000000000000005d       0x5e obj/Debug/system/beremiz/src/plc_debug.o
 .comment       0x000000000000005d       0x5e obj/Debug/system/beremiz/src/plc_glue_rte.o
 .comment       0x000000000000005d       0x5e obj/Debug/system/freertos/src/heap_1.o
 .comment       0x000000000000005d       0x5e obj/Debug/system/freertos/src/list.o
 .comment       0x000000000000005d       0x5e obj/Debug/system/freertos/src/port.o
 .comment       0x000000000000005d       0x5e obj/Debug/system/freertos/src/queue.o
 .comment       0x000000000000005d       0x5e obj/Debug/system/freertos/src/tasks.o
 .comment       0x000000000000005d       0x5e obj/Debug/system/freertos/src/timers.o
 .comment       0x000000000000005d       0x5e obj/Debug/system/stm32f1/src/cmsis/system_stm32f10x.o
 .comment       0x000000000000005d       0x5e obj/Debug/system/stm32f1/src/cmsis/vectors_stm32f10x.o
 .comment       0x000000000000005d       0x5e obj/Debug/system/stm32f1/src/cortexm/_initialize_hardware.o
 .comment       0x000000000000005d       0x5e obj/Debug/system/stm32f1/src/cortexm/exception_handlers.o
 .comment       0x000000000000005d       0x5e obj/Debug/system/stm32f1/src/newlib/_exit.o
 .comment       0x000000000000005d       0x5e obj/Debug/system/stm32f1/src/newlib/_startup.o
 .comment       0x000000000000005d       0x5e obj/Debug/system/stm32f1/src/newlib/_syscalls.o
 .comment       0x000000000000005d       0x5e obj/Debug/system/stm32f1/src/newlib/assert.o
 .comment       0x000000000000005d       0x5e obj/Debug/system/stm32f1/src/stm32f1-stdperiph/misc.o
 .comment       0x000000000000005d       0x5e obj/Debug/system/stm32f1/src/stm32f1-stdperiph/stm32f10x_exti.o
 .comment       0x000000000000005d       0x5e obj/Debug/system/stm32f1/src/stm32f1-stdperiph/stm32f10x_gpio.o
 .comment       0x000000000000005d       0x5e obj/Debug/system/stm32f1/src/stm32f1-stdperiph/stm32f10x_rcc.o
 .comment       0x000000000000005d       0x5e obj/Debug/system/stm32f1/src/stm32f1-stdperiph/stm32f10x_tim.o
 .comment       0x000000000000005d       0x5e obj/Debug/system/stm32f1/src/stm32f1-stdperiph/stm32f10x_usart.o
 .comment       0x000000000000005d       0x5e /opt/tools/bin/../lib/gcc/arm-none-eabi/10.3.1/thumb/v7-m/nofp/libgcc.a(_fixunssfdi.o)
 .comment       0x000000000000005d       0x5e /opt/tools/bin/../lib/gcc/arm-none-eabi/10.3.1/thumb/v7-m/nofp/libgcc.a(_udivmoddi4.o)
 .comment       0x000000000000005d       0x5e /opt/tools/bin/../lib/gcc/arm-none-eabi/10.3.1/../../../../arm-none-eabi/lib/thumb/v7-m/nofp/libc.a(lib_a-strlen-stub.o)

.ARM.attributes
                0x0000000000000000       0x2b
 .ARM.attributes
                0x0000000000000000       0x2d obj/Debug/src/beremiz/app-di.o
 .ARM.attributes
                0x000000000000002d       0x2d obj/Debug/src/beremiz/app-do.o
 .ARM.attributes
                0x000000000000005a       0x2d obj/Debug/src/beremiz/app-sys.o
 .ARM.attributes
                0x0000000000000087       0x2d obj/Debug/src/beremiz/app.o
 .ARM.attributes
                0x00000000000000b4       0x2d obj/Debug/src/freertos/rtos-error.o
 .ARM.attributes
                0x00000000000000e1       0x2d obj/Debug/src/freertos/rtos-task-app.o
 .ARM.attributes
                0x000000000000010e       0x2d obj/Debug/src/freertos/rtos-task-data.o
 .ARM.attributes
                0x000000000000013b       0x2d obj/Debug/src/freertos/rtos-task-di.o
 .ARM.attributes
                0x0000000000000168       0x2d obj/Debug/src/freertos/rtos-task-do.o
 .ARM.attributes
                0x0000000000000195       0x2d obj/Debug/src/freertos/rtos-task-log.o
 .ARM.attributes
                0x00000000000001c2       0x2d obj/Debug/src/freertos/rtos-task-mbrtu.o
 .ARM.attributes
                0x00000000000001ef       0x2d obj/Debug/src/freertos/rtos-tim-app.o
 .ARM.attributes
                0x000000000000021c       0x33 obj/Debug/src/freertos/rtos.o
 .ARM.attributes
                0x000000000000024f       0x2d obj/Debug/src/main.o
 .ARM.attributes
                0x000000000000027c       0x2d obj/Debug/src/mbrtu.o
 .ARM.attributes
                0x00000000000002a9       0x2d obj/Debug/src/reg-base.o
 .ARM.attributes
                0x00000000000002d6       0x2d obj/Debug/src/reg.o
 .ARM.attributes
                0x0000000000000303       0x2d obj/Debug/src/stm32f1/di.o
 .ARM.attributes
                0x0000000000000330       0x2d obj/Debug/src/stm32f1/do.o
 .ARM.attributes
                0x000000000000035d       0x2d obj/Debug/src/stm32f1/soft-reset.o
 .ARM.attributes
                0x000000000000038a       0x2d obj/Debug/src/stm32f1/sysclock.o
 .ARM.attributes
                0x00000000000003b7       0x2d obj/Debug/src/stm32f1/systick.o
 .ARM.attributes
                0x00000000000003e4       0x2d obj/Debug/src/stm32f1/tim2.o
 .ARM.attributes
                0x0000000000000411       0x2d obj/Debug/src/stm32f1/tim3.o
 .ARM.attributes
                0x000000000000043e       0x2d obj/Debug/src/stm32f1/usart.o
 .ARM.attributes
                0x000000000000046b       0x2d obj/Debug/src/stm32f1/usart1.o
 .ARM.attributes
                0x0000000000000498       0x2d obj/Debug/src/stm32f1/usart2.o
 .ARM.attributes
                0x00000000000004c5       0x2d obj/Debug/src/stm32f1/usart3.o
 .ARM.attributes
                0x00000000000004f2       0x2d obj/Debug/src/type.o
 .ARM.attributes
                0x000000000000051f       0x2d obj/Debug/src/xprintf.o
 .ARM.attributes
                0x000000000000054c       0x2d obj/Debug/system/beremiz/src/plc_app.o
 .ARM.attributes
                0x0000000000000579       0x2d obj/Debug/system/beremiz/src/plc_debug.o
 .ARM.attributes
                0x00000000000005a6       0x2d obj/Debug/system/beremiz/src/plc_glue_rte.o
 .ARM.attributes
                0x00000000000005d3       0x2d obj/Debug/system/freertos/src/heap_1.o
 .ARM.attributes
                0x0000000000000600       0x2d obj/Debug/system/freertos/src/list.o
 .ARM.attributes
                0x000000000000062d       0x2d obj/Debug/system/freertos/src/port.o
 .ARM.attributes
                0x000000000000065a       0x2d obj/Debug/system/freertos/src/queue.o
 .ARM.attributes
                0x0000000000000687       0x2d obj/Debug/system/freertos/src/tasks.o
 .ARM.attributes
                0x00000000000006b4       0x2d obj/Debug/system/freertos/src/timers.o
 .ARM.attributes
                0x00000000000006e1       0x2d obj/Debug/system/stm32f1/src/cmsis/system_stm32f10x.o
 .ARM.attributes
                0x000000000000070e       0x2d obj/Debug/system/stm32f1/src/cmsis/vectors_stm32f10x.o
 .ARM.attributes
                0x000000000000073b       0x2d obj/Debug/system/stm32f1/src/cortexm/_initialize_hardware.o
 .ARM.attributes
                0x0000000000000768       0x2d obj/Debug/system/stm32f1/src/cortexm/exception_handlers.o
 .ARM.attributes
                0x0000000000000795       0x2d obj/Debug/system/stm32f1/src/newlib/_exit.o
 .ARM.attributes
                0x00000000000007c2       0x2d obj/Debug/system/stm32f1/src/newlib/_startup.o
 .ARM.attributes
                0x00000000000007ef       0x2d obj/Debug/system/stm32f1/src/newlib/_syscalls.o
 .ARM.attributes
                0x000000000000081c       0x2d obj/Debug/system/stm32f1/src/newlib/assert.o
 .ARM.attributes
                0x0000000000000849       0x2d obj/Debug/system/stm32f1/src/stm32f1-stdperiph/misc.o
 .ARM.attributes
                0x0000000000000876       0x2d obj/Debug/system/stm32f1/src/stm32f1-stdperiph/stm32f10x_exti.o
 .ARM.attributes
                0x00000000000008a3       0x2d obj/Debug/system/stm32f1/src/stm32f1-stdperiph/stm32f10x_gpio.o
 .ARM.attributes
                0x00000000000008d0       0x2d obj/Debug/system/stm32f1/src/stm32f1-stdperiph/stm32f10x_rcc.o
 .ARM.attributes
                0x00000000000008fd       0x2d obj/Debug/system/stm32f1/src/stm32f1-stdperiph/stm32f10x_tim.o
 .ARM.attributes
                0x000000000000092a       0x2d obj/Debug/system/stm32f1/src/stm32f1-stdperiph/stm32f10x_usart.o
 .ARM.attributes
                0x0000000000000957       0x1d /opt/tools/bin/../lib/gcc/arm-none-eabi/10.3.1/thumb/v7-m/nofp/libgcc.a(_arm_addsubdf3.o)
 .ARM.attributes
                0x0000000000000974       0x1d /opt/tools/bin/../lib/gcc/arm-none-eabi/10.3.1/thumb/v7-m/nofp/libgcc.a(_arm_muldivdf3.o)
 .ARM.attributes
                0x0000000000000991       0x1d /opt/tools/bin/../lib/gcc/arm-none-eabi/10.3.1/thumb/v7-m/nofp/libgcc.a(_arm_cmpdf2.o)
 .ARM.attributes
                0x00000000000009ae       0x1d /opt/tools/bin/../lib/gcc/arm-none-eabi/10.3.1/thumb/v7-m/nofp/libgcc.a(_arm_unorddf2.o)
 .ARM.attributes
                0x00000000000009cb       0x1d /opt/tools/bin/../lib/gcc/arm-none-eabi/10.3.1/thumb/v7-m/nofp/libgcc.a(_arm_fixdfsi.o)
 .ARM.attributes
                0x00000000000009e8       0x1d /opt/tools/bin/../lib/gcc/arm-none-eabi/10.3.1/thumb/v7-m/nofp/libgcc.a(_arm_fixunsdfsi.o)
 .ARM.attributes
                0x0000000000000a05       0x1d /opt/tools/bin/../lib/gcc/arm-none-eabi/10.3.1/thumb/v7-m/nofp/libgcc.a(_arm_addsubsf3.o)
 .ARM.attributes
                0x0000000000000a22       0x1d /opt/tools/bin/../lib/gcc/arm-none-eabi/10.3.1/thumb/v7-m/nofp/libgcc.a(_arm_muldivsf3.o)
 .ARM.attributes
                0x0000000000000a3f       0x1d /opt/tools/bin/../lib/gcc/arm-none-eabi/10.3.1/thumb/v7-m/nofp/libgcc.a(_arm_cmpsf2.o)
 .ARM.attributes
                0x0000000000000a5c       0x1d /opt/tools/bin/../lib/gcc/arm-none-eabi/10.3.1/thumb/v7-m/nofp/libgcc.a(_arm_fixunssfsi.o)
 .ARM.attributes
                0x0000000000000a79       0x1d /opt/tools/bin/../lib/gcc/arm-none-eabi/10.3.1/thumb/v7-m/nofp/libgcc.a(_aeabi_uldivmod.o)
 .ARM.attributes
                0x0000000000000a96       0x2d /opt/tools/bin/../lib/gcc/arm-none-eabi/10.3.1/thumb/v7-m/nofp/libgcc.a(_fixunssfdi.o)
 .ARM.attributes
                0x0000000000000ac3       0x2d /opt/tools/bin/../lib/gcc/arm-none-eabi/10.3.1/thumb/v7-m/nofp/libgcc.a(_udivmoddi4.o)
 .ARM.attributes
                0x0000000000000af0       0x1d /opt/tools/bin/../lib/gcc/arm-none-eabi/10.3.1/thumb/v7-m/nofp/libgcc.a(_dvmd_tls.o)
 .ARM.attributes
                0x0000000000000b0d       0x1b /opt/tools/bin/../lib/gcc/arm-none-eabi/10.3.1/../../../../arm-none-eabi/lib/thumb/v7-m/nofp/libc.a(lib_a-memcpy.o)
 .ARM.attributes
                0x0000000000000b28       0x2d /opt/tools/bin/../lib/gcc/arm-none-eabi/10.3.1/../../../../arm-none-eabi/lib/thumb/v7-m/nofp/libc.a(lib_a-strlen-stub.o)

.debug
 *(.debug)

.line
 *(.line)

.debug_srcinfo
 *(.debug_srcinfo)

.debug_sfnames
 *(.debug_sfnames)

.debug_aranges  0x0000000000000000     0x1968
 *(.debug_aranges)
 .debug_aranges
                0x0000000000000000       0x48 obj/Debug/src/beremiz/app-di.o
 .debug_aranges
                0x0000000000000048       0x40 obj/Debug/src/beremiz/app-do.o
 .debug_aranges
                0x0000000000000088       0x20 obj/Debug/src/beremiz/app-sys.o
 .debug_aranges
                0x00000000000000a8       0x28 obj/Debug/src/beremiz/app.o
 .debug_aranges
                0x00000000000000d0       0x20 obj/Debug/src/freertos/rtos-error.o
 .debug_aranges
                0x00000000000000f0       0x30 obj/Debug/src/freertos/rtos-task-app.o
 .debug_aranges
                0x0000000000000120       0x60 obj/Debug/src/freertos/rtos-task-data.o
 .debug_aranges
                0x0000000000000180       0xb8 obj/Debug/src/freertos/rtos-task-di.o
 .debug_aranges
                0x0000000000000238       0xa8 obj/Debug/src/freertos/rtos-task-do.o
 .debug_aranges
                0x00000000000002e0       0x30 obj/Debug/src/freertos/rtos-task-log.o
 .debug_aranges
                0x0000000000000310       0x28 obj/Debug/src/freertos/rtos-task-mbrtu.o
 .debug_aranges
                0x0000000000000338       0x20 obj/Debug/src/freertos/rtos-tim-app.o
 .debug_aranges
                0x0000000000000358       0x18 obj/Debug/src/freertos/rtos.o
 .debug_aranges
                0x0000000000000370       0x20 obj/Debug/src/main.o
 .debug_aranges
                0x0000000000000390      0x168 obj/Debug/src/mbrtu.o
 .debug_aranges
                0x00000000000004f8      0x1d8 obj/Debug/src/reg-base.o
 .debug_aranges
                0x00000000000006d0       0x38 obj/Debug/src/reg.o
 .debug_aranges
                0x0000000000000708       0x38 obj/Debug/src/stm32f1/di.o
 .debug_aranges
                0x0000000000000740       0x40 obj/Debug/src/stm32f1/do.o
 .debug_aranges
                0x0000000000000780       0x20 obj/Debug/src/stm32f1/soft-reset.o
 .debug_aranges
                0x00000000000007a0       0x20 obj/Debug/src/stm32f1/sysclock.o
 .debug_aranges
                0x00000000000007c0       0x20 obj/Debug/src/stm32f1/systick.o
 .debug_aranges
                0x00000000000007e0       0x30 obj/Debug/src/stm32f1/tim2.o
 .debug_aranges
                0x0000000000000810       0x20 obj/Debug/src/stm32f1/tim3.o
 .debug_aranges
                0x0000000000000830       0x38 obj/Debug/src/stm32f1/usart.o
 .debug_aranges
                0x0000000000000868       0x48 obj/Debug/src/stm32f1/usart1.o
 .debug_aranges
                0x00000000000008b0       0x28 obj/Debug/src/stm32f1/usart2.o
 .debug_aranges
                0x00000000000008d8       0x20 obj/Debug/src/stm32f1/usart3.o
 .debug_aranges
                0x00000000000008f8       0x70 obj/Debug/src/type.o
 .debug_aranges
                0x0000000000000968       0x78 obj/Debug/src/xprintf.o
 .debug_aranges
                0x00000000000009e0       0x50 obj/Debug/system/beremiz/src/plc_app.o
 .debug_aranges
                0x0000000000000a30       0x50 obj/Debug/system/beremiz/src/plc_debug.o
 .debug_aranges
                0x0000000000000a80       0x30 obj/Debug/system/beremiz/src/plc_glue_rte.o
 .debug_aranges
                0x0000000000000ab0       0x38 obj/Debug/system/freertos/src/heap_1.o
 .debug_aranges
                0x0000000000000ae8       0x40 obj/Debug/system/freertos/src/list.o
 .debug_aranges
                0x0000000000000b28       0x70 obj/Debug/system/freertos/src/port.o
 .debug_aranges
                0x0000000000000b98      0x118 obj/Debug/system/freertos/src/queue.o
 .debug_aranges
                0x0000000000000cb0      0x1a0 obj/Debug/system/freertos/src/tasks.o
 .debug_aranges
                0x0000000000000e50       0xc8 obj/Debug/system/freertos/src/timers.o
 .debug_aranges
                0x0000000000000f18       0x38 obj/Debug/system/stm32f1/src/cmsis/system_stm32f10x.o
 .debug_aranges
                0x0000000000000f50       0x20 obj/Debug/system/stm32f1/src/cmsis/vectors_stm32f10x.o
 .debug_aranges
                0x0000000000000f70       0x28 obj/Debug/system/stm32f1/src/cortexm/_initialize_hardware.o
 .debug_aranges
                0x0000000000000f98       0x80 obj/Debug/system/stm32f1/src/cortexm/exception_handlers.o
 .debug_aranges
                0x0000000000001018       0x28 obj/Debug/system/stm32f1/src/newlib/_exit.o
 .debug_aranges
                0x0000000000001040       0x40 obj/Debug/system/stm32f1/src/newlib/_startup.o
 .debug_aranges
                0x0000000000001080       0x30 obj/Debug/system/stm32f1/src/newlib/_syscalls.o
 .debug_aranges
                0x00000000000010b0       0x28 obj/Debug/system/stm32f1/src/newlib/assert.o
 .debug_aranges
                0x00000000000010d8       0x40 obj/Debug/system/stm32f1/src/stm32f1-stdperiph/misc.o
 .debug_aranges
                0x0000000000001118       0x58 obj/Debug/system/stm32f1/src/stm32f1-stdperiph/stm32f10x_exti.o
 .debug_aranges
                0x0000000000001170       0xa8 obj/Debug/system/stm32f1/src/stm32f1-stdperiph/stm32f10x_gpio.o
 .debug_aranges
                0x0000000000001218      0x160 obj/Debug/system/stm32f1/src/stm32f1-stdperiph/stm32f10x_rcc.o
 .debug_aranges
                0x0000000000001378      0x2f0 obj/Debug/system/stm32f1/src/stm32f1-stdperiph/stm32f10x_tim.o
 .debug_aranges
                0x0000000000001668      0x100 obj/Debug/system/stm32f1/src/stm32f1-stdperiph/stm32f10x_usart.o
 .debug_aranges
                0x0000000000001768       0x20 /opt/tools/bin/../lib/gcc/arm-none-eabi/10.3.1/thumb/v7-m/nofp/libgcc.a(_arm_addsubdf3.o)
 .debug_aranges
                0x0000000000001788       0x20 /opt/tools/bin/../lib/gcc/arm-none-eabi/10.3.1/thumb/v7-m/nofp/libgcc.a(_arm_muldivdf3.o)
 .debug_aranges
                0x00000000000017a8       0x20 /opt/tools/bin/../lib/gcc/arm-none-eabi/10.3.1/thumb/v7-m/nofp/libgcc.a(_arm_cmpdf2.o)
 .debug_aranges
                0x00000000000017c8       0x20 /opt/tools/bin/../lib/gcc/arm-none-eabi/10.3.1/thumb/v7-m/nofp/libgcc.a(_arm_unorddf2.o)
 .debug_aranges
                0x00000000000017e8       0x20 /opt/tools/bin/../lib/gcc/arm-none-eabi/10.3.1/thumb/v7-m/nofp/libgcc.a(_arm_fixdfsi.o)
 .debug_aranges
                0x0000000000001808       0x20 /opt/tools/bin/../lib/gcc/arm-none-eabi/10.3.1/thumb/v7-m/nofp/libgcc.a(_arm_fixunsdfsi.o)
 .debug_aranges
                0x0000000000001828       0x20 /opt/tools/bin/../lib/gcc/arm-none-eabi/10.3.1/thumb/v7-m/nofp/libgcc.a(_arm_addsubsf3.o)
 .debug_aranges
                0x0000000000001848       0x20 /opt/tools/bin/../lib/gcc/arm-none-eabi/10.3.1/thumb/v7-m/nofp/libgcc.a(_arm_muldivsf3.o)
 .debug_aranges
                0x0000000000001868       0x20 /opt/tools/bin/../lib/gcc/arm-none-eabi/10.3.1/thumb/v7-m/nofp/libgcc.a(_arm_cmpsf2.o)
 .debug_aranges
                0x0000000000001888       0x20 /opt/tools/bin/../lib/gcc/arm-none-eabi/10.3.1/thumb/v7-m/nofp/libgcc.a(_arm_fixunssfsi.o)
 .debug_aranges
                0x00000000000018a8       0x20 /opt/tools/bin/../lib/gcc/arm-none-eabi/10.3.1/thumb/v7-m/nofp/libgcc.a(_aeabi_uldivmod.o)
 .debug_aranges
                0x00000000000018c8       0x20 /opt/tools/bin/../lib/gcc/arm-none-eabi/10.3.1/thumb/v7-m/nofp/libgcc.a(_fixunssfdi.o)
 .debug_aranges
                0x00000000000018e8       0x20 /opt/tools/bin/../lib/gcc/arm-none-eabi/10.3.1/thumb/v7-m/nofp/libgcc.a(_udivmoddi4.o)
 .debug_aranges
                0x0000000000001908       0x20 /opt/tools/bin/../lib/gcc/arm-none-eabi/10.3.1/thumb/v7-m/nofp/libgcc.a(_dvmd_tls.o)
 .debug_aranges
                0x0000000000001928       0x20 /opt/tools/bin/../lib/gcc/arm-none-eabi/10.3.1/../../../../arm-none-eabi/lib/thumb/v7-m/nofp/libc.a(lib_a-memcpy.o)
 .debug_aranges
                0x0000000000001948       0x20 /opt/tools/bin/../lib/gcc/arm-none-eabi/10.3.1/../../../../arm-none-eabi/lib/thumb/v7-m/nofp/libc.a(lib_a-strlen-stub.o)

.debug_pubnames
 *(.debug_pubnames)

.debug_info     0x0000000000000000    0x2447e
 *(.debug_info .gnu.linkonce.wi.*)
 .debug_info    0x0000000000000000      0x9dd obj/Debug/src/beremiz/app-di.o
 .debug_info    0x00000000000009dd      0x6fc obj/Debug/src/beremiz/app-do.o
 .debug_info    0x00000000000010d9       0xe4 obj/Debug/src/beremiz/app-sys.o
 .debug_info    0x00000000000011bd      0x8ec obj/Debug/src/beremiz/app.o
 .debug_info    0x0000000000001aa9      0x1ce obj/Debug/src/freertos/rtos-error.o
 .debug_info    0x0000000000001c77      0xc59 obj/Debug/src/freertos/rtos-task-app.o
 .debug_info    0x00000000000028d0      0xf3b obj/Debug/src/freertos/rtos-task-data.o
 .debug_info    0x000000000000380b      0xe1b obj/Debug/src/freertos/rtos-task-di.o
 .debug_info    0x0000000000004626      0xfa4 obj/Debug/src/freertos/rtos-task-do.o
 .debug_info    0x00000000000055ca      0x442 obj/Debug/src/freertos/rtos-task-log.o
 .debug_info    0x0000000000005a0c      0x629 obj/Debug/src/freertos/rtos-task-mbrtu.o
 .debug_info    0x0000000000006035      0x3a4 obj/Debug/src/freertos/rtos-tim-app.o
 .debug_info    0x00000000000063d9      0x24c obj/Debug/src/freertos/rtos.o
 .debug_info    0x0000000000006625      0xe32 obj/Debug/src/main.o
 .debug_info    0x0000000000007457     0x1b36 obj/Debug/src/mbrtu.o
 .debug_info    0x0000000000008f8d     0x2f4e obj/Debug/src/reg-base.o
 .debug_info    0x000000000000bedb     0x1391 obj/Debug/src/reg.o
 .debug_info    0x000000000000d26c      0x931 obj/Debug/src/stm32f1/di.o
 .debug_info    0x000000000000db9d      0x50e obj/Debug/src/stm32f1/do.o
 .debug_info    0x000000000000e0ab      0x256 obj/Debug/src/stm32f1/soft-reset.o
 .debug_info    0x000000000000e301      0x2f9 obj/Debug/src/stm32f1/sysclock.o
 .debug_info    0x000000000000e5fa      0x669 obj/Debug/src/stm32f1/systick.o
 .debug_info    0x000000000000ec63      0x706 obj/Debug/src/stm32f1/tim2.o
 .debug_info    0x000000000000f369      0x66f obj/Debug/src/stm32f1/tim3.o
 .debug_info    0x000000000000f9d8      0x3ae obj/Debug/src/stm32f1/usart.o
 .debug_info    0x000000000000fd86      0xcaf obj/Debug/src/stm32f1/usart1.o
 .debug_info    0x0000000000010a35      0xc34 obj/Debug/src/stm32f1/usart2.o
 .debug_info    0x0000000000011669      0x443 obj/Debug/src/stm32f1/usart3.o
 .debug_info    0x0000000000011aac      0x5b7 obj/Debug/src/type.o
 .debug_info    0x0000000000012063      0x97e obj/Debug/src/xprintf.o
 .debug_info    0x00000000000129e1      0xbe0 obj/Debug/system/beremiz/src/plc_app.o
 .debug_info    0x00000000000135c1     0x1117 obj/Debug/system/beremiz/src/plc_debug.o
 .debug_info    0x00000000000146d8      0xa8a obj/Debug/system/beremiz/src/plc_glue_rte.o
 .debug_info    0x0000000000015162      0x1a8 obj/Debug/system/freertos/src/heap_1.o
 .debug_info    0x000000000001530a      0x2d4 obj/Debug/system/freertos/src/list.o
 .debug_info    0x00000000000155de      0x348 obj/Debug/system/freertos/src/port.o
 .debug_info    0x0000000000015926     0x1d6d obj/Debug/system/freertos/src/queue.o
 .debug_info    0x0000000000017693     0x206d obj/Debug/system/freertos/src/tasks.o
 .debug_info    0x0000000000019700     0x1082 obj/Debug/system/freertos/src/timers.o
 .debug_info    0x000000000001a782      0x529 obj/Debug/system/stm32f1/src/cmsis/system_stm32f10x.o
 .debug_info    0x000000000001acab       0xca obj/Debug/system/stm32f1/src/cmsis/vectors_stm32f10x.o
 .debug_info    0x000000000001ad75      0x2a8 obj/Debug/system/stm32f1/src/cortexm/_initialize_hardware.o
 .debug_info    0x000000000001b01d      0x279 obj/Debug/system/stm32f1/src/cortexm/exception_handlers.o
 .debug_info    0x000000000001b296       0xee obj/Debug/system/stm32f1/src/newlib/_exit.o
 .debug_info    0x000000000001b384      0x4aa obj/Debug/system/stm32f1/src/newlib/_startup.o
 .debug_info    0x000000000001b82e      0x1d1 obj/Debug/system/stm32f1/src/newlib/_syscalls.o
 .debug_info    0x000000000001b9ff      0x186 obj/Debug/system/stm32f1/src/newlib/assert.o
 .debug_info    0x000000000001bb85      0x677 obj/Debug/system/stm32f1/src/stm32f1-stdperiph/misc.o
 .debug_info    0x000000000001c1fc      0x48d obj/Debug/system/stm32f1/src/stm32f1-stdperiph/stm32f10x_exti.o
 .debug_info    0x000000000001c689      0xcb6 obj/Debug/system/stm32f1/src/stm32f1-stdperiph/stm32f10x_gpio.o
 .debug_info    0x000000000001d33f     0x1136 obj/Debug/system/stm32f1/src/stm32f1-stdperiph/stm32f10x_rcc.o
 .debug_info    0x000000000001e475     0x3e9f obj/Debug/system/stm32f1/src/stm32f1-stdperiph/stm32f10x_tim.o
 .debug_info    0x0000000000022314     0x140b obj/Debug/system/stm32f1/src/stm32f1-stdperiph/stm32f10x_usart.o
 .debug_info    0x000000000002371f       0x26 /opt/tools/bin/../lib/gcc/arm-none-eabi/10.3.1/thumb/v7-m/nofp/libgcc.a(_arm_addsubdf3.o)
 .debug_info    0x0000000000023745       0x26 /opt/tools/bin/../lib/gcc/arm-none-eabi/10.3.1/thumb/v7-m/nofp/libgcc.a(_arm_muldivdf3.o)
 .debug_info    0x000000000002376b       0x26 /opt/tools/bin/../lib/gcc/arm-none-eabi/10.3.1/thumb/v7-m/nofp/libgcc.a(_arm_cmpdf2.o)
 .debug_info    0x0000000000023791       0x26 /opt/tools/bin/../lib/gcc/arm-none-eabi/10.3.1/thumb/v7-m/nofp/libgcc.a(_arm_unorddf2.o)
 .debug_info    0x00000000000237b7       0x26 /opt/tools/bin/../lib/gcc/arm-none-eabi/10.3.1/thumb/v7-m/nofp/libgcc.a(_arm_fixdfsi.o)
 .debug_info    0x00000000000237dd       0x26 /opt/tools/bin/../lib/gcc/arm-none-eabi/10.3.1/thumb/v7-m/nofp/libgcc.a(_arm_fixunsdfsi.o)
 .debug_info    0x0000000000023803       0x26 /opt/tools/bin/../lib/gcc/arm-none-eabi/10.3.1/thumb/v7-m/nofp/libgcc.a(_arm_addsubsf3.o)
 .debug_info    0x0000000000023829       0x26 /opt/tools/bin/../lib/gcc/arm-none-eabi/10.3.1/thumb/v7-m/nofp/libgcc.a(_arm_muldivsf3.o)
 .debug_info    0x000000000002384f       0x26 /opt/tools/bin/../lib/gcc/arm-none-eabi/10.3.1/thumb/v7-m/nofp/libgcc.a(_arm_cmpsf2.o)
 .debug_info    0x0000000000023875       0x26 /opt/tools/bin/../lib/gcc/arm-none-eabi/10.3.1/thumb/v7-m/nofp/libgcc.a(_arm_fixunssfsi.o)
 .debug_info    0x000000000002389b       0x26 /opt/tools/bin/../lib/gcc/arm-none-eabi/10.3.1/thumb/v7-m/nofp/libgcc.a(_aeabi_uldivmod.o)
 .debug_info    0x00000000000238c1      0x39e /opt/tools/bin/../lib/gcc/arm-none-eabi/10.3.1/thumb/v7-m/nofp/libgcc.a(_fixunssfdi.o)
 .debug_info    0x0000000000023c5f      0x717 /opt/tools/bin/../lib/gcc/arm-none-eabi/10.3.1/thumb/v7-m/nofp/libgcc.a(_udivmoddi4.o)
 .debug_info    0x0000000000024376       0x26 /opt/tools/bin/../lib/gcc/arm-none-eabi/10.3.1/thumb/v7-m/nofp/libgcc.a(_dvmd_tls.o)
 .debug_info    0x000000000002439c       0x26 /opt/tools/bin/../lib/gcc/arm-none-eabi/10.3.1/../../../../arm-none-eabi/lib/thumb/v7-m/nofp/libc.a(lib_a-memcpy.o)
 .debug_info    0x00000000000243c2       0xbc /opt/tools/bin/../lib/gcc/arm-none-eabi/10.3.1/../../../../arm-none-eabi/lib/thumb/v7-m/nofp/libc.a(lib_a-strlen-stub.o)

.debug_abbrev   0x0000000000000000     0x5d09
 *(.debug_abbrev)
 .debug_abbrev  0x0000000000000000      0x110 obj/Debug/src/beremiz/app-di.o
 .debug_abbrev  0x0000000000000110      0x133 obj/Debug/src/beremiz/app-do.o
 .debug_abbrev  0x0000000000000243       0x87 obj/Debug/src/beremiz/app-sys.o
 .debug_abbrev  0x00000000000002ca      0x139 obj/Debug/src/beremiz/app.o
 .debug_abbrev  0x0000000000000403       0xb8 obj/Debug/src/freertos/rtos-error.o
 .debug_abbrev  0x00000000000004bb      0x199 obj/Debug/src/freertos/rtos-task-app.o
 .debug_abbrev  0x0000000000000654      0x2d0 obj/Debug/src/freertos/rtos-task-data.o
 .debug_abbrev  0x0000000000000924      0x28c obj/Debug/src/freertos/rtos-task-di.o
 .debug_abbrev  0x0000000000000bb0      0x347 obj/Debug/src/freertos/rtos-task-do.o
 .debug_abbrev  0x0000000000000ef7      0x1e5 obj/Debug/src/freertos/rtos-task-log.o
 .debug_abbrev  0x00000000000010dc      0x1bf obj/Debug/src/freertos/rtos-task-mbrtu.o
 .debug_abbrev  0x000000000000129b      0x11a obj/Debug/src/freertos/rtos-tim-app.o
 .debug_abbrev  0x00000000000013b5       0x69 obj/Debug/src/freertos/rtos.o
 .debug_abbrev  0x000000000000141e      0x1e5 obj/Debug/src/main.o
 .debug_abbrev  0x0000000000001603      0x351 obj/Debug/src/mbrtu.o
 .debug_abbrev  0x0000000000001954      0x388 obj/Debug/src/reg-base.o
 .debug_abbrev  0x0000000000001cdc      0x146 obj/Debug/src/reg.o
 .debug_abbrev  0x0000000000001e22      0x238 obj/Debug/src/stm32f1/di.o
 .debug_abbrev  0x000000000000205a      0x1bd obj/Debug/src/stm32f1/do.o
 .debug_abbrev  0x0000000000002217       0xb3 obj/Debug/src/stm32f1/soft-reset.o
 .debug_abbrev  0x00000000000022ca       0xb1 obj/Debug/src/stm32f1/sysclock.o
 .debug_abbrev  0x000000000000237b      0x1b8 obj/Debug/src/stm32f1/systick.o
 .debug_abbrev  0x0000000000002533      0x15c obj/Debug/src/stm32f1/tim2.o
 .debug_abbrev  0x000000000000268f      0x151 obj/Debug/src/stm32f1/tim3.o
 .debug_abbrev  0x00000000000027e0      0x14e obj/Debug/src/stm32f1/usart.o
 .debug_abbrev  0x000000000000292e      0x282 obj/Debug/src/stm32f1/usart1.o
 .debug_abbrev  0x0000000000002bb0      0x224 obj/Debug/src/stm32f1/usart2.o
 .debug_abbrev  0x0000000000002dd4      0x133 obj/Debug/src/stm32f1/usart3.o
 .debug_abbrev  0x0000000000002f07      0x186 obj/Debug/src/type.o
 .debug_abbrev  0x000000000000308d      0x24b obj/Debug/src/xprintf.o
 .debug_abbrev  0x00000000000032d8      0x217 obj/Debug/system/beremiz/src/plc_app.o
 .debug_abbrev  0x00000000000034ef      0x2b1 obj/Debug/system/beremiz/src/plc_debug.o
 .debug_abbrev  0x00000000000037a0      0x196 obj/Debug/system/beremiz/src/plc_glue_rte.o
 .debug_abbrev  0x0000000000003936      0x133 obj/Debug/system/freertos/src/heap_1.o
 .debug_abbrev  0x0000000000003a69      0x106 obj/Debug/system/freertos/src/list.o
 .debug_abbrev  0x0000000000003b6f      0x1fa obj/Debug/system/freertos/src/port.o
 .debug_abbrev  0x0000000000003d69      0x2ae obj/Debug/system/freertos/src/queue.o
 .debug_abbrev  0x0000000000004017      0x311 obj/Debug/system/freertos/src/tasks.o
 .debug_abbrev  0x0000000000004328      0x249 obj/Debug/system/freertos/src/timers.o
 .debug_abbrev  0x0000000000004571      0x187 obj/Debug/system/stm32f1/src/cmsis/system_stm32f10x.o
 .debug_abbrev  0x00000000000046f8       0xa2 obj/Debug/system/stm32f1/src/cmsis/vectors_stm32f10x.o
 .debug_abbrev  0x000000000000479a       0xe6 obj/Debug/system/stm32f1/src/cortexm/_initialize_hardware.o
 .debug_abbrev  0x0000000000004880      0x111 obj/Debug/system/stm32f1/src/cortexm/exception_handlers.o
 .debug_abbrev  0x0000000000004991       0xa8 obj/Debug/system/stm32f1/src/newlib/_exit.o
 .debug_abbrev  0x0000000000004a39      0x1ae obj/Debug/system/stm32f1/src/newlib/_startup.o
 .debug_abbrev  0x0000000000004be7      0x10b obj/Debug/system/stm32f1/src/newlib/_syscalls.o
 .debug_abbrev  0x0000000000004cf2       0xc5 obj/Debug/system/stm32f1/src/newlib/assert.o
 .debug_abbrev  0x0000000000004db7      0x193 obj/Debug/system/stm32f1/src/stm32f1-stdperiph/misc.o
 .debug_abbrev  0x0000000000004f4a      0x1b9 obj/Debug/system/stm32f1/src/stm32f1-stdperiph/stm32f10x_exti.o
 .debug_abbrev  0x0000000000005103      0x222 obj/Debug/system/stm32f1/src/stm32f1-stdperiph/stm32f10x_gpio.o
 .debug_abbrev  0x0000000000005325      0x217 obj/Debug/system/stm32f1/src/stm32f1-stdperiph/stm32f10x_rcc.o
 .debug_abbrev  0x000000000000553c      0x1fd obj/Debug/system/stm32f1/src/stm32f1-stdperiph/stm32f10x_tim.o
 .debug_abbrev  0x0000000000005739      0x1ef obj/Debug/system/stm32f1/src/stm32f1-stdperiph/stm32f10x_usart.o
 .debug_abbrev  0x0000000000005928       0x14 /opt/tools/bin/../lib/gcc/arm-none-eabi/10.3.1/thumb/v7-m/nofp/libgcc.a(_arm_addsubdf3.o)
 .debug_abbrev  0x000000000000593c       0x14 /opt/tools/bin/../lib/gcc/arm-none-eabi/10.3.1/thumb/v7-m/nofp/libgcc.a(_arm_muldivdf3.o)
 .debug_abbrev  0x0000000000005950       0x14 /opt/tools/bin/../lib/gcc/arm-none-eabi/10.3.1/thumb/v7-m/nofp/libgcc.a(_arm_cmpdf2.o)
 .debug_abbrev  0x0000000000005964       0x14 /opt/tools/bin/../lib/gcc/arm-none-eabi/10.3.1/thumb/v7-m/nofp/libgcc.a(_arm_unorddf2.o)
 .debug_abbrev  0x0000000000005978       0x14 /opt/tools/bin/../lib/gcc/arm-none-eabi/10.3.1/thumb/v7-m/nofp/libgcc.a(_arm_fixdfsi.o)
 .debug_abbrev  0x000000000000598c       0x14 /opt/tools/bin/../lib/gcc/arm-none-eabi/10.3.1/thumb/v7-m/nofp/libgcc.a(_arm_fixunsdfsi.o)
 .debug_abbrev  0x00000000000059a0       0x14 /opt/tools/bin/../lib/gcc/arm-none-eabi/10.3.1/thumb/v7-m/nofp/libgcc.a(_arm_addsubsf3.o)
 .debug_abbrev  0x00000000000059b4       0x14 /opt/tools/bin/../lib/gcc/arm-none-eabi/10.3.1/thumb/v7-m/nofp/libgcc.a(_arm_muldivsf3.o)
 .debug_abbrev  0x00000000000059c8       0x14 /opt/tools/bin/../lib/gcc/arm-none-eabi/10.3.1/thumb/v7-m/nofp/libgcc.a(_arm_cmpsf2.o)
 .debug_abbrev  0x00000000000059dc       0x14 /opt/tools/bin/../lib/gcc/arm-none-eabi/10.3.1/thumb/v7-m/nofp/libgcc.a(_arm_fixunssfsi.o)
 .debug_abbrev  0x00000000000059f0       0x14 /opt/tools/bin/../lib/gcc/arm-none-eabi/10.3.1/thumb/v7-m/nofp/libgcc.a(_aeabi_uldivmod.o)
 .debug_abbrev  0x0000000000005a04      0x101 /opt/tools/bin/../lib/gcc/arm-none-eabi/10.3.1/thumb/v7-m/nofp/libgcc.a(_fixunssfdi.o)
 .debug_abbrev  0x0000000000005b05      0x163 /opt/tools/bin/../lib/gcc/arm-none-eabi/10.3.1/thumb/v7-m/nofp/libgcc.a(_udivmoddi4.o)
 .debug_abbrev  0x0000000000005c68       0x14 /opt/tools/bin/../lib/gcc/arm-none-eabi/10.3.1/thumb/v7-m/nofp/libgcc.a(_dvmd_tls.o)
 .debug_abbrev  0x0000000000005c7c       0x14 /opt/tools/bin/../lib/gcc/arm-none-eabi/10.3.1/../../../../arm-none-eabi/lib/thumb/v7-m/nofp/libc.a(lib_a-memcpy.o)
 .debug_abbrev  0x0000000000005c90       0x79 /opt/tools/bin/../lib/gcc/arm-none-eabi/10.3.1/../../../../arm-none-eabi/lib/thumb/v7-m/nofp/libc.a(lib_a-strlen-stub.o)

.debug_line     0x0000000000000000    0x17126
 *(.debug_line)
 .debug_line    0x0000000000000000      0x5c1 obj/Debug/src/beremiz/app-di.o
 .debug_line    0x00000000000005c1      0x4dc obj/Debug/src/beremiz/app-do.o
 .debug_line    0x0000000000000a9d       0xf5 obj/Debug/src/beremiz/app-sys.o
 .debug_line    0x0000000000000b92      0x1d9 obj/Debug/src/beremiz/app.o
 .debug_line    0x0000000000000d6b       0xe7 obj/Debug/src/freertos/rtos-error.o
 .debug_line    0x0000000000000e52      0x295 obj/Debug/src/freertos/rtos-task-app.o
 .debug_line    0x00000000000010e7      0x7c4 obj/Debug/src/freertos/rtos-task-data.o
 .debug_line    0x00000000000018ab      0xa3e obj/Debug/src/freertos/rtos-task-di.o
 .debug_line    0x00000000000022e9      0xa00 obj/Debug/src/freertos/rtos-task-do.o
 .debug_line    0x0000000000002ce9      0x28b obj/Debug/src/freertos/rtos-task-log.o
 .debug_line    0x0000000000002f74      0x26b obj/Debug/src/freertos/rtos-task-mbrtu.o
 .debug_line    0x00000000000031df      0x131 obj/Debug/src/freertos/rtos-tim-app.o
 .debug_line    0x0000000000003310       0xca obj/Debug/src/freertos/rtos.o
 .debug_line    0x00000000000033da      0x4ac obj/Debug/src/main.o
 .debug_line    0x0000000000003886     0x1712 obj/Debug/src/mbrtu.o
 .debug_line    0x0000000000004f98     0x22fc obj/Debug/src/reg-base.o
 .debug_line    0x0000000000007294      0x4de obj/Debug/src/reg.o
 .debug_line    0x0000000000007772      0x347 obj/Debug/src/stm32f1/di.o
 .debug_line    0x0000000000007ab9      0x240 obj/Debug/src/stm32f1/do.o
 .debug_line    0x0000000000007cf9       0xdb obj/Debug/src/stm32f1/soft-reset.o
 .debug_line    0x0000000000007dd4      0x19a obj/Debug/src/stm32f1/sysclock.o
 .debug_line    0x0000000000007f6e      0x12c obj/Debug/src/stm32f1/systick.o
 .debug_line    0x000000000000809a      0x1ad obj/Debug/src/stm32f1/tim2.o
 .debug_line    0x0000000000008247      0x157 obj/Debug/src/stm32f1/tim3.o
 .debug_line    0x000000000000839e      0x22a obj/Debug/src/stm32f1/usart.o
 .debug_line    0x00000000000085c8      0x357 obj/Debug/src/stm32f1/usart1.o
 .debug_line    0x000000000000891f      0x36b obj/Debug/src/stm32f1/usart2.o
 .debug_line    0x0000000000008c8a      0x17e obj/Debug/src/stm32f1/usart3.o
 .debug_line    0x0000000000008e08      0x4c6 obj/Debug/src/type.o
 .debug_line    0x00000000000092ce      0xa07 obj/Debug/src/xprintf.o
 .debug_line    0x0000000000009cd5      0x460 obj/Debug/system/beremiz/src/plc_app.o
 .debug_line    0x000000000000a135      0x97e obj/Debug/system/beremiz/src/plc_debug.o
 .debug_line    0x000000000000aab3      0x3f6 obj/Debug/system/beremiz/src/plc_glue_rte.o
 .debug_line    0x000000000000aea9      0x17f obj/Debug/system/freertos/src/heap_1.o
 .debug_line    0x000000000000b028      0x270 obj/Debug/system/freertos/src/list.o
 .debug_line    0x000000000000b298      0x2f5 obj/Debug/system/freertos/src/port.o
 .debug_line    0x000000000000b58d     0x11ac obj/Debug/system/freertos/src/queue.o
 .debug_line    0x000000000000c739     0x17cf obj/Debug/system/freertos/src/tasks.o
 .debug_line    0x000000000000df08      0x7dc obj/Debug/system/freertos/src/timers.o
 .debug_line    0x000000000000e6e4      0x3e4 obj/Debug/system/stm32f1/src/cmsis/system_stm32f10x.o
 .debug_line    0x000000000000eac8       0x75 obj/Debug/system/stm32f1/src/cmsis/vectors_stm32f10x.o
 .debug_line    0x000000000000eb3d      0x10a obj/Debug/system/stm32f1/src/cortexm/_initialize_hardware.o
 .debug_line    0x000000000000ec47      0x22e obj/Debug/system/stm32f1/src/cortexm/exception_handlers.o
 .debug_line    0x000000000000ee75      0x10e obj/Debug/system/stm32f1/src/newlib/_exit.o
 .debug_line    0x000000000000ef83      0x37d obj/Debug/system/stm32f1/src/newlib/_startup.o
 .debug_line    0x000000000000f300      0x138 obj/Debug/system/stm32f1/src/newlib/_syscalls.o
 .debug_line    0x000000000000f438      0x132 obj/Debug/system/stm32f1/src/newlib/assert.o
 .debug_line    0x000000000000f56a      0x2fc obj/Debug/system/stm32f1/src/stm32f1-stdperiph/misc.o
 .debug_line    0x000000000000f866      0x481 obj/Debug/system/stm32f1/src/stm32f1-stdperiph/stm32f10x_exti.o
 .debug_line    0x000000000000fce7      0xb03 obj/Debug/system/stm32f1/src/stm32f1-stdperiph/stm32f10x_gpio.o
 .debug_line    0x00000000000107ea      0xedc obj/Debug/system/stm32f1/src/stm32f1-stdperiph/stm32f10x_rcc.o
 .debug_line    0x00000000000116c6     0x376c obj/Debug/system/stm32f1/src/stm32f1-stdperiph/stm32f10x_tim.o
 .debug_line    0x0000000000014e32      0xef6 obj/Debug/system/stm32f1/src/stm32f1-stdperiph/stm32f10x_usart.o
 .debug_line    0x0000000000015d28      0x1a9 /opt/tools/bin/../lib/gcc/arm-none-eabi/10.3.1/thumb/v7-m/nofp/libgcc.a(_arm_addsubdf3.o)
 .debug_line    0x0000000000015ed1      0x1be /opt/tools/bin/../lib/gcc/arm-none-eabi/10.3.1/thumb/v7-m/nofp/libgcc.a(_arm_muldivdf3.o)
 .debug_line    0x000000000001608f       0xe0 /opt/tools/bin/../lib/gcc/arm-none-eabi/10.3.1/thumb/v7-m/nofp/libgcc.a(_arm_cmpdf2.o)
 .debug_line    0x000000000001616f       0x91 /opt/tools/bin/../lib/gcc/arm-none-eabi/10.3.1/thumb/v7-m/nofp/libgcc.a(_arm_unorddf2.o)
 .debug_line    0x0000000000016200       0x9c /opt/tools/bin/../lib/gcc/arm-none-eabi/10.3.1/thumb/v7-m/nofp/libgcc.a(_arm_fixdfsi.o)
 .debug_line    0x000000000001629c       0x98 /opt/tools/bin/../lib/gcc/arm-none-eabi/10.3.1/thumb/v7-m/nofp/libgcc.a(_arm_fixunsdfsi.o)
 .debug_line    0x0000000000016334      0x13d /opt/tools/bin/../lib/gcc/arm-none-eabi/10.3.1/thumb/v7-m/nofp/libgcc.a(_arm_addsubsf3.o)
 .debug_line    0x0000000000016471      0x15d /opt/tools/bin/../lib/gcc/arm-none-eabi/10.3.1/thumb/v7-m/nofp/libgcc.a(_arm_muldivsf3.o)
 .debug_line    0x00000000000165ce       0xd4 /opt/tools/bin/../lib/gcc/arm-none-eabi/10.3.1/thumb/v7-m/nofp/libgcc.a(_arm_cmpsf2.o)
 .debug_line    0x00000000000166a2       0x98 /opt/tools/bin/../lib/gcc/arm-none-eabi/10.3.1/thumb/v7-m/nofp/libgcc.a(_arm_fixunssfsi.o)
 .debug_line    0x000000000001673a       0x83 /opt/tools/bin/../lib/gcc/arm-none-eabi/10.3.1/thumb/v7-m/nofp/libgcc.a(_aeabi_uldivmod.o)
 .debug_line    0x00000000000167bd       0xda /opt/tools/bin/../lib/gcc/arm-none-eabi/10.3.1/thumb/v7-m/nofp/libgcc.a(_fixunssfdi.o)
 .debug_line    0x0000000000016897      0x5c6 /opt/tools/bin/../lib/gcc/arm-none-eabi/10.3.1/thumb/v7-m/nofp/libgcc.a(_udivmoddi4.o)
 .debug_line    0x0000000000016e5d       0x83 /opt/tools/bin/../lib/gcc/arm-none-eabi/10.3.1/thumb/v7-m/nofp/libgcc.a(_dvmd_tls.o)
 .debug_line    0x0000000000016ee0       0xe5 /opt/tools/bin/../lib/gcc/arm-none-eabi/10.3.1/../../../../arm-none-eabi/lib/thumb/v7-m/nofp/libc.a(lib_a-memcpy.o)
 .debug_line    0x0000000000016fc5      0x161 /opt/tools/bin/../lib/gcc/arm-none-eabi/10.3.1/../../../../arm-none-eabi/lib/thumb/v7-m/nofp/libc.a(lib_a-strlen-stub.o)

.debug_frame    0x0000000000000000     0x45e0
 *(.debug_frame)
 .debug_frame   0x0000000000000000      0x114 obj/Debug/src/beremiz/app-di.o
 .debug_frame   0x0000000000000114       0xe0 obj/Debug/src/beremiz/app-do.o
 .debug_frame   0x00000000000001f4       0x28 obj/Debug/src/beremiz/app-sys.o
 .debug_frame   0x000000000000021c       0x44 obj/Debug/src/beremiz/app.o
 .debug_frame   0x0000000000000260       0x28 obj/Debug/src/freertos/rtos-error.o
 .debug_frame   0x0000000000000288       0x68 obj/Debug/src/freertos/rtos-task-app.o
 .debug_frame   0x00000000000002f0      0x14c obj/Debug/src/freertos/rtos-task-data.o
 .debug_frame   0x000000000000043c      0x23c obj/Debug/src/freertos/rtos-task-di.o
 .debug_frame   0x0000000000000678      0x1ec obj/Debug/src/freertos/rtos-task-do.o
 .debug_frame   0x0000000000000864       0x7c obj/Debug/src/freertos/rtos-task-log.o
 .debug_frame   0x00000000000008e0       0x48 obj/Debug/src/freertos/rtos-task-mbrtu.o
 .debug_frame   0x0000000000000928       0x28 obj/Debug/src/freertos/rtos-tim-app.o
 .debug_frame   0x0000000000000950       0x34 obj/Debug/src/main.o
 .debug_frame   0x0000000000000984      0x3dc obj/Debug/src/mbrtu.o
 .debug_frame   0x0000000000000d60      0x774 obj/Debug/src/reg-base.o
 .debug_frame   0x00000000000014d4       0x94 obj/Debug/src/reg.o
 .debug_frame   0x0000000000001568       0x84 obj/Debug/src/stm32f1/di.o
 .debug_frame   0x00000000000015ec       0xa4 obj/Debug/src/stm32f1/do.o
 .debug_frame   0x0000000000001690       0x20 obj/Debug/src/stm32f1/soft-reset.o
 .debug_frame   0x00000000000016b0       0x28 obj/Debug/src/stm32f1/sysclock.o
 .debug_frame   0x00000000000016d8       0x28 obj/Debug/src/stm32f1/systick.o
 .debug_frame   0x0000000000001700       0x60 obj/Debug/src/stm32f1/tim2.o
 .debug_frame   0x0000000000001760       0x34 obj/Debug/src/stm32f1/tim3.o
 .debug_frame   0x0000000000001794       0x90 obj/Debug/src/stm32f1/usart.o
 .debug_frame   0x0000000000001824       0xa4 obj/Debug/src/stm32f1/usart1.o
 .debug_frame   0x00000000000018c8       0x58 obj/Debug/src/stm32f1/usart2.o
 .debug_frame   0x0000000000001920       0x30 obj/Debug/src/stm32f1/usart3.o
 .debug_frame   0x0000000000001950      0x118 obj/Debug/src/type.o
 .debug_frame   0x0000000000001a68      0x1b8 obj/Debug/src/xprintf.o
 .debug_frame   0x0000000000001c20       0xe4 obj/Debug/system/beremiz/src/plc_app.o
 .debug_frame   0x0000000000001d04       0xc0 obj/Debug/system/beremiz/src/plc_debug.o
 .debug_frame   0x0000000000001dc4       0x60 obj/Debug/system/beremiz/src/plc_glue_rte.o
 .debug_frame   0x0000000000001e24       0x5c obj/Debug/system/freertos/src/heap_1.o
 .debug_frame   0x0000000000001e80       0x70 obj/Debug/system/freertos/src/list.o
 .debug_frame   0x0000000000001ef0       0xd8 obj/Debug/system/freertos/src/port.o
 .debug_frame   0x0000000000001fc8      0x37c obj/Debug/system/freertos/src/queue.o
 .debug_frame   0x0000000000002344      0x4e4 obj/Debug/system/freertos/src/tasks.o
 .debug_frame   0x0000000000002828      0x25c obj/Debug/system/freertos/src/timers.o
 .debug_frame   0x0000000000002a84       0x6c obj/Debug/system/stm32f1/src/cmsis/system_stm32f10x.o
 .debug_frame   0x0000000000002af0       0x20 obj/Debug/system/stm32f1/src/cmsis/vectors_stm32f10x.o
 .debug_frame   0x0000000000002b10       0x40 obj/Debug/system/stm32f1/src/cortexm/_initialize_hardware.o
 .debug_frame   0x0000000000002b50       0xe8 obj/Debug/system/stm32f1/src/cortexm/exception_handlers.o
 .debug_frame   0x0000000000002c38       0x38 obj/Debug/system/stm32f1/src/newlib/_exit.o
 .debug_frame   0x0000000000002c70       0x7c obj/Debug/system/stm32f1/src/newlib/_startup.o
 .debug_frame   0x0000000000002cec       0x50 obj/Debug/system/stm32f1/src/newlib/_syscalls.o
 .debug_frame   0x0000000000002d3c       0x40 obj/Debug/system/stm32f1/src/newlib/assert.o
 .debug_frame   0x0000000000002d7c       0x90 obj/Debug/system/stm32f1/src/stm32f1-stdperiph/misc.o
 .debug_frame   0x0000000000002e0c       0xc0 obj/Debug/system/stm32f1/src/stm32f1-stdperiph/stm32f10x_exti.o
 .debug_frame   0x0000000000002ecc      0x1e4 obj/Debug/system/stm32f1/src/stm32f1-stdperiph/stm32f10x_gpio.o
 .debug_frame   0x00000000000030b0      0x3fc obj/Debug/system/stm32f1/src/stm32f1-stdperiph/stm32f10x_rcc.o
 .debug_frame   0x00000000000034ac      0x9d0 obj/Debug/system/stm32f1/src/stm32f1-stdperiph/stm32f10x_tim.o
 .debug_frame   0x0000000000003e7c      0x320 obj/Debug/system/stm32f1/src/stm32f1-stdperiph/stm32f10x_usart.o
 .debug_frame   0x000000000000419c       0xac /opt/tools/bin/../lib/gcc/arm-none-eabi/10.3.1/thumb/v7-m/nofp/libgcc.a(_arm_addsubdf3.o)
 .debug_frame   0x0000000000004248       0x50 /opt/tools/bin/../lib/gcc/arm-none-eabi/10.3.1/thumb/v7-m/nofp/libgcc.a(_arm_muldivdf3.o)
 .debug_frame   0x0000000000004298       0xc4 /opt/tools/bin/../lib/gcc/arm-none-eabi/10.3.1/thumb/v7-m/nofp/libgcc.a(_arm_cmpdf2.o)
 .debug_frame   0x000000000000435c       0x20 /opt/tools/bin/../lib/gcc/arm-none-eabi/10.3.1/thumb/v7-m/nofp/libgcc.a(_arm_unorddf2.o)
 .debug_frame   0x000000000000437c       0x24 /opt/tools/bin/../lib/gcc/arm-none-eabi/10.3.1/thumb/v7-m/nofp/libgcc.a(_arm_fixdfsi.o)
 .debug_frame   0x00000000000043a0       0x24 /opt/tools/bin/../lib/gcc/arm-none-eabi/10.3.1/thumb/v7-m/nofp/libgcc.a(_arm_fixunsdfsi.o)
 .debug_frame   0x00000000000043c4       0x4c /opt/tools/bin/../lib/gcc/arm-none-eabi/10.3.1/thumb/v7-m/nofp/libgcc.a(_arm_addsubsf3.o)
 .debug_frame   0x0000000000004410       0x38 /opt/tools/bin/../lib/gcc/arm-none-eabi/10.3.1/thumb/v7-m/nofp/libgcc.a(_arm_muldivsf3.o)
 .debug_frame   0x0000000000004448       0xc8 /opt/tools/bin/../lib/gcc/arm-none-eabi/10.3.1/thumb/v7-m/nofp/libgcc.a(_arm_cmpsf2.o)
 .debug_frame   0x0000000000004510       0x24 /opt/tools/bin/../lib/gcc/arm-none-eabi/10.3.1/thumb/v7-m/nofp/libgcc.a(_arm_fixunssfsi.o)
 .debug_frame   0x0000000000004534       0x2c /opt/tools/bin/../lib/gcc/arm-none-eabi/10.3.1/thumb/v7-m/nofp/libgcc.a(_aeabi_uldivmod.o)
 .debug_frame   0x0000000000004560       0x2c /opt/tools/bin/../lib/gcc/arm-none-eabi/10.3.1/thumb/v7-m/nofp/libgcc.a(_fixunssfdi.o)
 .debug_frame   0x000000000000458c       0x34 /opt/tools/bin/../lib/gcc/arm-none-eabi/10.3.1/thumb/v7-m/nofp/libgcc.a(_udivmoddi4.o)
 .debug_frame   0x00000000000045c0       0x20 /opt/tools/bin/../lib/gcc/arm-none-eabi/10.3.1/../../../../arm-none-eabi/lib/thumb/v7-m/nofp/libc.a(lib_a-strlen-stub.o)

.debug_str      0x0000000000000000     0x6cbb
 *(.debug_str)
 .debug_str     0x0000000000000000      0x2dc obj/Debug/src/beremiz/app-di.o
                                        0x342 (size before relaxing)
 .debug_str     0x00000000000002dc       0xba obj/Debug/src/beremiz/app-do.o
                                        0x348 (size before relaxing)
 .debug_str     0x0000000000000396       0x3d obj/Debug/src/beremiz/app-sys.o
                                        0x1ee (size before relaxing)
 .debug_str     0x00000000000003d3      0x27b obj/Debug/src/beremiz/app.o
                                        0x4fa (size before relaxing)
 .debug_str     0x000000000000064e       0x4e obj/Debug/src/freertos/rtos-error.o
                                        0x1fd (size before relaxing)
 .debug_str     0x000000000000069c      0x141 obj/Debug/src/freertos/rtos-task-app.o
                                        0x6b5 (size before relaxing)
 .debug_str     0x00000000000007dd      0x32d obj/Debug/src/freertos/rtos-task-data.o
                                        0x670 (size before relaxing)
 .debug_str     0x0000000000000b0a      0x2a9 obj/Debug/src/freertos/rtos-task-di.o
                                        0x6a9 (size before relaxing)
 .debug_str     0x0000000000000db3      0x428 obj/Debug/src/freertos/rtos-task-do.o
                                        0x771 (size before relaxing)
 .debug_str     0x00000000000011db       0xd2 obj/Debug/src/freertos/rtos-task-log.o
                                        0x388 (size before relaxing)
 .debug_str     0x00000000000012ad      0x1a7 obj/Debug/src/freertos/rtos-task-mbrtu.o
                                        0x4bb (size before relaxing)
 .debug_str     0x0000000000001454       0x2c obj/Debug/src/freertos/rtos-tim-app.o
                                        0x347 (size before relaxing)
 .debug_str     0x0000000000001480       0x24 obj/Debug/src/freertos/rtos.o
                                        0x2ea (size before relaxing)
 .debug_str     0x00000000000014a4      0x194 obj/Debug/src/main.o
                                        0x6bb (size before relaxing)
 .debug_str     0x0000000000001638      0x4b5 obj/Debug/src/mbrtu.o
                                        0x94b (size before relaxing)
 .debug_str     0x0000000000001aed      0x674 obj/Debug/src/reg-base.o
                                        0xb21 (size before relaxing)
 .debug_str     0x0000000000002161        0xa obj/Debug/src/reg.o
                                        0x2ca (size before relaxing)
 .debug_str     0x000000000000216b      0x728 obj/Debug/src/stm32f1/di.o
                                        0x9af (size before relaxing)
 .debug_str     0x0000000000002893       0x5a obj/Debug/src/stm32f1/do.o
                                        0x3cf (size before relaxing)
 .debug_str     0x00000000000028ed       0x6d obj/Debug/src/stm32f1/soft-reset.o
                                        0x223 (size before relaxing)
 .debug_str     0x000000000000295a      0x112 obj/Debug/src/stm32f1/sysclock.o
                                        0x2d2 (size before relaxing)
 .debug_str     0x0000000000002a6c       0xba obj/Debug/src/stm32f1/systick.o
                                        0x6b0 (size before relaxing)
 .debug_str     0x0000000000002b26       0xdd obj/Debug/src/stm32f1/tim2.o
                                        0x834 (size before relaxing)
 .debug_str     0x0000000000002c03       0x13 obj/Debug/src/stm32f1/tim3.o
                                        0x7ed (size before relaxing)
 .debug_str     0x0000000000002c16       0x59 obj/Debug/src/stm32f1/usart.o
                                        0x2de (size before relaxing)
 .debug_str     0x0000000000002c6f      0x1a7 obj/Debug/src/stm32f1/usart1.o
                                        0xa1d (size before relaxing)
 .debug_str     0x0000000000002e16       0x40 obj/Debug/src/stm32f1/usart2.o
                                        0xb41 (size before relaxing)
 .debug_str     0x0000000000002e56       0x15 obj/Debug/src/stm32f1/usart3.o
                                        0x426 (size before relaxing)
 .debug_str     0x0000000000002e6b       0x9f obj/Debug/src/type.o
                                        0x2f9 (size before relaxing)
 .debug_str     0x0000000000002f0a      0x106 obj/Debug/src/xprintf.o
                                        0x2fb (size before relaxing)
 .debug_str     0x0000000000003010       0xa0 obj/Debug/system/beremiz/src/plc_app.o
                                        0x5b1 (size before relaxing)
 .debug_str     0x00000000000030b0      0x13d obj/Debug/system/beremiz/src/plc_debug.o
                                        0x6bc (size before relaxing)
 .debug_str     0x00000000000031ed       0x66 obj/Debug/system/beremiz/src/plc_glue_rte.o
                                        0x517 (size before relaxing)
 .debug_str     0x0000000000003253       0xbe obj/Debug/system/freertos/src/heap_1.o
                                        0x269 (size before relaxing)
 .debug_str     0x0000000000003311      0x138 obj/Debug/system/freertos/src/list.o
                                        0x2fd (size before relaxing)
 .debug_str     0x0000000000003449      0x1a1 obj/Debug/system/freertos/src/port.o
                                        0x366 (size before relaxing)
 .debug_str     0x00000000000035ea      0x6ac obj/Debug/system/freertos/src/queue.o
                                        0xa91 (size before relaxing)
 .debug_str     0x0000000000003c96      0x8a1 obj/Debug/system/freertos/src/tasks.o
                                        0xed4 (size before relaxing)
 .debug_str     0x0000000000004537      0x3e4 obj/Debug/system/freertos/src/timers.o
                                        0x895 (size before relaxing)
 .debug_str     0x000000000000491b      0x122 obj/Debug/system/stm32f1/src/cmsis/system_stm32f10x.o
                                        0x362 (size before relaxing)
 .debug_str     0x0000000000004a3d       0x5c obj/Debug/system/stm32f1/src/cmsis/vectors_stm32f10x.o
                                        0x1e5 (size before relaxing)
 .debug_str     0x0000000000004a99       0x74 obj/Debug/system/stm32f1/src/cortexm/_initialize_hardware.o
                                        0x28d (size before relaxing)
 .debug_str     0x0000000000004b0d       0xf9 obj/Debug/system/stm32f1/src/cortexm/exception_handlers.o
                                        0x2ce (size before relaxing)
 .debug_str     0x0000000000004c06       0x39 obj/Debug/system/stm32f1/src/newlib/_exit.o
                                        0x1d8 (size before relaxing)
 .debug_str     0x0000000000004c3f      0x187 obj/Debug/system/stm32f1/src/newlib/_startup.o
                                        0x37d (size before relaxing)
 .debug_str     0x0000000000004dc6       0x61 obj/Debug/system/stm32f1/src/newlib/_syscalls.o
                                        0x21e (size before relaxing)
 .debug_str     0x0000000000004e27       0x68 obj/Debug/system/stm32f1/src/newlib/assert.o
                                        0x21e (size before relaxing)
 .debug_str     0x0000000000004e8f       0xe5 obj/Debug/system/stm32f1/src/stm32f1-stdperiph/misc.o
                                        0x414 (size before relaxing)
 .debug_str     0x0000000000004f74       0xc1 obj/Debug/system/stm32f1/src/stm32f1-stdperiph/stm32f10x_exti.o
                                        0x3ba (size before relaxing)
 .debug_str     0x0000000000005035      0x1f3 obj/Debug/system/stm32f1/src/stm32f1-stdperiph/stm32f10x_gpio.o
                                        0x57b (size before relaxing)
 .debug_str     0x0000000000005228      0x3a3 obj/Debug/system/stm32f1/src/stm32f1-stdperiph/stm32f10x_rcc.o
                                        0x7ad (size before relaxing)
 .debug_str     0x00000000000055cb      0x9f8 obj/Debug/system/stm32f1/src/stm32f1-stdperiph/stm32f10x_tim.o
                                        0xe56 (size before relaxing)
 .debug_str     0x0000000000005fc3      0x302 obj/Debug/system/stm32f1/src/stm32f1-stdperiph/stm32f10x_usart.o
                                        0x71b (size before relaxing)
 .debug_str     0x00000000000062c5       0xd1 /opt/tools/bin/../lib/gcc/arm-none-eabi/10.3.1/thumb/v7-m/nofp/libgcc.a(_arm_addsubdf3.o)
 .debug_str     0x0000000000006396       0xd1 /opt/tools/bin/../lib/gcc/arm-none-eabi/10.3.1/thumb/v7-m/nofp/libgcc.a(_arm_muldivdf3.o)
 .debug_str     0x0000000000006396       0xd1 /opt/tools/bin/../lib/gcc/arm-none-eabi/10.3.1/thumb/v7-m/nofp/libgcc.a(_arm_cmpdf2.o)
 .debug_str     0x0000000000006396       0xd1 /opt/tools/bin/../lib/gcc/arm-none-eabi/10.3.1/thumb/v7-m/nofp/libgcc.a(_arm_unorddf2.o)
 .debug_str     0x0000000000006396       0xd1 /opt/tools/bin/../lib/gcc/arm-none-eabi/10.3.1/thumb/v7-m/nofp/libgcc.a(_arm_fixdfsi.o)
 .debug_str     0x0000000000006396       0xd1 /opt/tools/bin/../lib/gcc/arm-none-eabi/10.3.1/thumb/v7-m/nofp/libgcc.a(_arm_fixunsdfsi.o)
 .debug_str     0x0000000000006396       0x54 /opt/tools/bin/../lib/gcc/arm-none-eabi/10.3.1/thumb/v7-m/nofp/libgcc.a(_arm_addsubsf3.o)
                                         0xd1 (size before relaxing)
 .debug_str     0x00000000000063ea       0xd1 /opt/tools/bin/../lib/gcc/arm-none-eabi/10.3.1/thumb/v7-m/nofp/libgcc.a(_arm_muldivsf3.o)
 .debug_str     0x00000000000063ea       0xd1 /opt/tools/bin/../lib/gcc/arm-none-eabi/10.3.1/thumb/v7-m/nofp/libgcc.a(_arm_cmpsf2.o)
 .debug_str     0x00000000000063ea       0xd1 /opt/tools/bin/../lib/gcc/arm-none-eabi/10.3.1/thumb/v7-m/nofp/libgcc.a(_arm_fixunssfsi.o)
 .debug_str     0x00000000000063ea       0x4f /opt/tools/bin/../lib/gcc/arm-none-eabi/10.3.1/thumb/v7-m/nofp/libgcc.a(_aeabi_uldivmod.o)
                                         0xcc (size before relaxing)
 .debug_str     0x0000000000006439      0x545 /opt/tools/bin/../lib/gcc/arm-none-eabi/10.3.1/thumb/v7-m/nofp/libgcc.a(_fixunssfdi.o)
                                        0x67c (size before relaxing)
 .debug_str     0x000000000000697e      0x113 /opt/tools/bin/../lib/gcc/arm-none-eabi/10.3.1/thumb/v7-m/nofp/libgcc.a(_udivmoddi4.o)
                                        0x681 (size before relaxing)
 .debug_str     0x0000000000006a91       0x53 /opt/tools/bin/../lib/gcc/arm-none-eabi/10.3.1/thumb/v7-m/nofp/libgcc.a(_dvmd_tls.o)
                                         0xd0 (size before relaxing)
 .debug_str     0x0000000000006ae4       0xe9 /opt/tools/bin/../lib/gcc/arm-none-eabi/10.3.1/../../../../arm-none-eabi/lib/thumb/v7-m/nofp/libc.a(lib_a-memcpy.o)
                                         0xf7 (size before relaxing)
 .debug_str     0x0000000000006bcd       0xee /opt/tools/bin/../lib/gcc/arm-none-eabi/10.3.1/../../../../arm-none-eabi/lib/thumb/v7-m/nofp/libc.a(lib_a-strlen-stub.o)
                                        0x213 (size before relaxing)

.debug_loc      0x0000000000000000    0x17772
 *(.debug_loc)
 .debug_loc     0x0000000000000000      0x860 obj/Debug/src/beremiz/app-di.o
 .debug_loc     0x0000000000000860      0x612 obj/Debug/src/beremiz/app-do.o
 .debug_loc     0x0000000000000e72       0x25 obj/Debug/src/beremiz/app-sys.o
 .debug_loc     0x0000000000000e97       0x2f obj/Debug/src/beremiz/app.o
 .debug_loc     0x0000000000000ec6       0x4a obj/Debug/src/freertos/rtos-error.o
 .debug_loc     0x0000000000000f10       0x81 obj/Debug/src/freertos/rtos-task-app.o
 .debug_loc     0x0000000000000f91      0x684 obj/Debug/src/freertos/rtos-task-data.o
 .debug_loc     0x0000000000001615      0x9ab obj/Debug/src/freertos/rtos-task-di.o
 .debug_loc     0x0000000000001fc0      0xba7 obj/Debug/src/freertos/rtos-task-do.o
 .debug_loc     0x0000000000002b67       0xef obj/Debug/src/freertos/rtos-task-log.o
 .debug_loc     0x0000000000002c56       0x54 obj/Debug/src/freertos/rtos-task-mbrtu.o
 .debug_loc     0x0000000000002caa     0x1af3 obj/Debug/src/mbrtu.o
 .debug_loc     0x000000000000479d     0x4f92 obj/Debug/src/reg-base.o
 .debug_loc     0x000000000000972f      0x364 obj/Debug/src/reg.o
 .debug_loc     0x0000000000009a93      0x190 obj/Debug/src/stm32f1/di.o
 .debug_loc     0x0000000000009c23      0x3e8 obj/Debug/src/stm32f1/do.o
 .debug_loc     0x000000000000a00b       0x63 obj/Debug/src/stm32f1/systick.o
 .debug_loc     0x000000000000a06e      0x310 obj/Debug/src/stm32f1/usart.o
 .debug_loc     0x000000000000a37e      0x15d obj/Debug/src/stm32f1/usart1.o
 .debug_loc     0x000000000000a4db      0x83c obj/Debug/src/type.o
 .debug_loc     0x000000000000ad17      0xf22 obj/Debug/src/xprintf.o
 .debug_loc     0x000000000000bc39      0x133 obj/Debug/system/beremiz/src/plc_app.o
 .debug_loc     0x000000000000bd6c      0x312 obj/Debug/system/beremiz/src/plc_debug.o
 .debug_loc     0x000000000000c07e      0x218 obj/Debug/system/beremiz/src/plc_glue_rte.o
 .debug_loc     0x000000000000c296       0x60 obj/Debug/system/freertos/src/heap_1.o
 .debug_loc     0x000000000000c2f6       0xad obj/Debug/system/freertos/src/list.o
 .debug_loc     0x000000000000c3a3       0xbe obj/Debug/system/freertos/src/port.o
 .debug_loc     0x000000000000c461     0x1817 obj/Debug/system/freertos/src/queue.o
 .debug_loc     0x000000000000dc78     0x1b06 obj/Debug/system/freertos/src/tasks.o
 .debug_loc     0x000000000000f77e      0xc2e obj/Debug/system/freertos/src/timers.o
 .debug_loc     0x00000000000103ac      0x1ea obj/Debug/system/stm32f1/src/cmsis/system_stm32f10x.o
 .debug_loc     0x0000000000010596       0x15 obj/Debug/system/stm32f1/src/newlib/_exit.o
 .debug_loc     0x00000000000105ab      0x2de obj/Debug/system/stm32f1/src/newlib/_startup.o
 .debug_loc     0x0000000000010889       0x6f obj/Debug/system/stm32f1/src/newlib/_syscalls.o
 .debug_loc     0x00000000000108f8       0xde obj/Debug/system/stm32f1/src/newlib/assert.o
 .debug_loc     0x00000000000109d6      0x26d obj/Debug/system/stm32f1/src/stm32f1-stdperiph/misc.o
 .debug_loc     0x0000000000010c43      0x277 obj/Debug/system/stm32f1/src/stm32f1-stdperiph/stm32f10x_exti.o
 .debug_loc     0x0000000000010eba      0x9eb obj/Debug/system/stm32f1/src/stm32f1-stdperiph/stm32f10x_gpio.o
 .debug_loc     0x00000000000118a5     0x1230 obj/Debug/system/stm32f1/src/stm32f1-stdperiph/stm32f10x_rcc.o
 .debug_loc     0x0000000000012ad5     0x2d28 obj/Debug/system/stm32f1/src/stm32f1-stdperiph/stm32f10x_tim.o
 .debug_loc     0x00000000000157fd      0xd79 obj/Debug/system/stm32f1/src/stm32f1-stdperiph/stm32f10x_usart.o
 .debug_loc     0x0000000000016576       0xc2 /opt/tools/bin/../lib/gcc/arm-none-eabi/10.3.1/thumb/v7-m/nofp/libgcc.a(_fixunssfdi.o)
 .debug_loc     0x0000000000016638     0x1115 /opt/tools/bin/../lib/gcc/arm-none-eabi/10.3.1/thumb/v7-m/nofp/libgcc.a(_udivmoddi4.o)
 .debug_loc     0x000000000001774d       0x25 /opt/tools/bin/../lib/gcc/arm-none-eabi/10.3.1/../../../../arm-none-eabi/lib/thumb/v7-m/nofp/libc.a(lib_a-strlen-stub.o)

.debug_macinfo
 *(.debug_macinfo)

.debug_weaknames
 *(.debug_weaknames)

.debug_funcnames
 *(.debug_funcnames)

.debug_typenames
 *(.debug_typenames)

.debug_varnames
 *(.debug_varnames)
OUTPUT(bin/Debug/project.elf elf32-littlearm)
LOAD linker stubs

.debug_ranges   0x0000000000000000     0x1948
 .debug_ranges  0x0000000000000000       0xb0 obj/Debug/src/beremiz/app-di.o
 .debug_ranges  0x00000000000000b0       0x78 obj/Debug/src/beremiz/app-do.o
 .debug_ranges  0x0000000000000128       0x10 obj/Debug/src/beremiz/app-sys.o
 .debug_ranges  0x0000000000000138       0x18 obj/Debug/src/beremiz/app.o
 .debug_ranges  0x0000000000000150       0x10 obj/Debug/src/freertos/rtos-error.o
 .debug_ranges  0x0000000000000160       0x20 obj/Debug/src/freertos/rtos-task-app.o
 .debug_ranges  0x0000000000000180       0xc8 obj/Debug/src/freertos/rtos-task-data.o
 .debug_ranges  0x0000000000000248       0xf8 obj/Debug/src/freertos/rtos-task-di.o
 .debug_ranges  0x0000000000000340       0xb0 obj/Debug/src/freertos/rtos-task-do.o
 .debug_ranges  0x00000000000003f0       0x50 obj/Debug/src/freertos/rtos-task-log.o
 .debug_ranges  0x0000000000000440       0x18 obj/Debug/src/freertos/rtos-task-mbrtu.o
 .debug_ranges  0x0000000000000458       0x10 obj/Debug/src/freertos/rtos-tim-app.o
 .debug_ranges  0x0000000000000468       0x10 obj/Debug/src/main.o
 .debug_ranges  0x0000000000000478      0x158 obj/Debug/src/mbrtu.o
 .debug_ranges  0x00000000000005d0      0x240 obj/Debug/src/reg-base.o
 .debug_ranges  0x0000000000000810       0x28 obj/Debug/src/reg.o
 .debug_ranges  0x0000000000000838       0x28 obj/Debug/src/stm32f1/di.o
 .debug_ranges  0x0000000000000860       0x48 obj/Debug/src/stm32f1/do.o
 .debug_ranges  0x00000000000008a8       0x10 obj/Debug/src/stm32f1/soft-reset.o
 .debug_ranges  0x00000000000008b8       0x10 obj/Debug/src/stm32f1/sysclock.o
 .debug_ranges  0x00000000000008c8       0x10 obj/Debug/src/stm32f1/systick.o
 .debug_ranges  0x00000000000008d8       0x20 obj/Debug/src/stm32f1/tim2.o
 .debug_ranges  0x00000000000008f8       0x10 obj/Debug/src/stm32f1/tim3.o
 .debug_ranges  0x0000000000000908       0x28 obj/Debug/src/stm32f1/usart.o
 .debug_ranges  0x0000000000000930       0x38 obj/Debug/src/stm32f1/usart1.o
 .debug_ranges  0x0000000000000968       0x18 obj/Debug/src/stm32f1/usart2.o
 .debug_ranges  0x0000000000000980       0x10 obj/Debug/src/stm32f1/usart3.o
 .debug_ranges  0x0000000000000990       0x60 obj/Debug/src/type.o
 .debug_ranges  0x00000000000009f0       0x68 obj/Debug/src/xprintf.o
 .debug_ranges  0x0000000000000a58       0x70 obj/Debug/system/beremiz/src/plc_app.o
 .debug_ranges  0x0000000000000ac8       0x40 obj/Debug/system/beremiz/src/plc_debug.o
 .debug_ranges  0x0000000000000b08       0x20 obj/Debug/system/beremiz/src/plc_glue_rte.o
 .debug_ranges  0x0000000000000b28       0x28 obj/Debug/system/freertos/src/heap_1.o
 .debug_ranges  0x0000000000000b50       0x30 obj/Debug/system/freertos/src/list.o
 .debug_ranges  0x0000000000000b80       0x60 obj/Debug/system/freertos/src/port.o
 .debug_ranges  0x0000000000000be0      0x1c8 obj/Debug/system/freertos/src/queue.o
 .debug_ranges  0x0000000000000da8      0x248 obj/Debug/system/freertos/src/tasks.o
 .debug_ranges  0x0000000000000ff0       0xb8 obj/Debug/system/freertos/src/timers.o
 .debug_ranges  0x00000000000010a8       0x28 obj/Debug/system/stm32f1/src/cmsis/system_stm32f10x.o
 .debug_ranges  0x00000000000010d0       0x10 obj/Debug/system/stm32f1/src/cmsis/vectors_stm32f10x.o
 .debug_ranges  0x00000000000010e0       0x18 obj/Debug/system/stm32f1/src/cortexm/_initialize_hardware.o
 .debug_ranges  0x00000000000010f8       0x70 obj/Debug/system/stm32f1/src/cortexm/exception_handlers.o
 .debug_ranges  0x0000000000001168       0x18 obj/Debug/system/stm32f1/src/newlib/_exit.o
 .debug_ranges  0x0000000000001180       0x30 obj/Debug/system/stm32f1/src/newlib/_startup.o
 .debug_ranges  0x00000000000011b0       0x20 obj/Debug/system/stm32f1/src/newlib/_syscalls.o
 .debug_ranges  0x00000000000011d0       0x18 obj/Debug/system/stm32f1/src/newlib/assert.o
 .debug_ranges  0x00000000000011e8       0x30 obj/Debug/system/stm32f1/src/stm32f1-stdperiph/misc.o
 .debug_ranges  0x0000000000001218       0x48 obj/Debug/system/stm32f1/src/stm32f1-stdperiph/stm32f10x_exti.o
 .debug_ranges  0x0000000000001260       0x98 obj/Debug/system/stm32f1/src/stm32f1-stdperiph/stm32f10x_gpio.o
 .debug_ranges  0x00000000000012f8      0x150 obj/Debug/system/stm32f1/src/stm32f1-stdperiph/stm32f10x_rcc.o
 .debug_ranges  0x0000000000001448      0x2e0 obj/Debug/system/stm32f1/src/stm32f1-stdperiph/stm32f10x_tim.o
 .debug_ranges  0x0000000000001728       0xf0 obj/Debug/system/stm32f1/src/stm32f1-stdperiph/stm32f10x_usart.o
 .debug_ranges  0x0000000000001818       0x10 /opt/tools/bin/../lib/gcc/arm-none-eabi/10.3.1/thumb/v7-m/nofp/libgcc.a(_fixunssfdi.o)
 .debug_ranges  0x0000000000001828      0x110 /opt/tools/bin/../lib/gcc/arm-none-eabi/10.3.1/thumb/v7-m/nofp/libgcc.a(_udivmoddi4.o)
 .debug_ranges  0x0000000000001938       0x10 /opt/tools/bin/../lib/gcc/arm-none-eabi/10.3.1/../../../../arm-none-eabi/lib/thumb/v7-m/nofp/libc.a(lib_a-strlen-stub.o)
